

Microchip Technology PIC18 LITE Macro Assembler V1.34 build -361300703 
                                                                                               Sun Feb 05 10:20:14 2017

Microchip Technology Omniscient Code Generator (Lite mode) build 201502162209
     1                           	processor	18F2550
     2                           	fnconf	rparam,??,?,0
     3                           	opt	pw 120
     4                           	opt	lm
     5                           	psect	smallconst,global,reloc=2,class=SMALLCONST,delta=1
     6                           	psect	cinit,global,reloc=2,class=CODE,delta=1
     7                           	psect	bssCOMRAM,global,class=COMRAM,space=1,delta=1
     8                           	psect	bssBANK0,global,class=BANK0,space=1,delta=1
     9                           	psect	cstackBANK0,global,class=BANK0,space=1,delta=1
    10                           	psect	cstackCOMRAM,global,class=COMRAM,space=1,delta=1
    11                           	psect	text0,global,reloc=2,class=CODE,delta=1
    12                           	psect	text1,global,reloc=2,class=CODE,delta=1
    13                           	psect	text2,global,reloc=2,class=CODE,delta=1
    14                           	psect	text3,global,reloc=2,class=CODE,delta=1
    15                           	psect	text4,global,reloc=2,class=CODE,delta=1
    16                           	psect	text5,global,reloc=2,class=CODE,delta=1
    17                           	psect	text6,global,reloc=2,class=CODE,delta=1
    18                           	psect	text7,global,reloc=2,class=CODE,delta=1
    19                           	psect	text8,global,reloc=2,class=CODE,delta=1
    20                           	psect	text9,global,reloc=2,class=CODE,delta=1
    21                           	psect	text10,global,reloc=2,class=CODE,delta=1
    22                           	psect	intcodelo,global,reloc=2,class=CODE,delta=1
    23                           	psect	intcode,global,reloc=2,class=CODE,delta=1
    24                           	psect	intcode_body,global,reloc=2,class=CODE,delta=1
    25                           	psect	text13,global,reloc=2,class=CODE,delta=1
    26                           	psect	text14,global,reloc=2,class=CODE,delta=1
    27                           	psect	text15,global,reloc=2,class=CODE,delta=1
    28                           	psect	text16,global,reloc=2,class=CODE,delta=1
    29                           	psect	text17,global,reloc=2,class=CODE,delta=1
    30                           	psect	text18,global,reloc=2,class=CODE,delta=1
    31                           	psect	text19,global,reloc=2,class=CODE,delta=1
    32                           	psect	text20,global,reloc=2,class=CODE,delta=1
    33                           	psect	text21,global,reloc=2,class=CODE,delta=1
    34                           	psect	text22,global,reloc=2,class=CODE,delta=1
    35                           	psect	text23,global,reloc=2,class=CODE,delta=1
    36                           	psect	text24,global,reloc=2,class=CODE,delta=1
    37                           	psect	text25,global,reloc=2,class=CODE,delta=1
    38                           	psect	text26,global,reloc=2,class=CODE,delta=1
    39                           	psect	text27,global,reloc=2,class=CODE,delta=1
    40                           	psect	text28,global,reloc=2,class=CODE,delta=1
    41                           	psect	text29,global,reloc=2,class=CODE,delta=1
    42                           	psect	text30,global,reloc=2,class=CODE,delta=1
    43                           	psect	text31,global,reloc=2,class=CODE,delta=1
    44                           	psect	text32,global,reloc=2,class=CODE,delta=1
    45                           	psect	text33,global,reloc=2,class=CODE,delta=1
    46                           	psect	text34,global,reloc=2,class=CODE,delta=1
    47                           	psect	text35,global,reloc=2,class=CODE,delta=1
    48                           	psect	text36,global,reloc=2,class=CODE,delta=1
    49                           	psect	text37,global,reloc=2,class=CODE,delta=1
    50                           	psect	text38,global,reloc=2,class=CODE,delta=1
    51                           	psect	text39,global,reloc=2,class=CODE,delta=1
    52                           	psect	text40,global,reloc=2,class=CODE,delta=1
    53                           	psect	text41,global,reloc=2,class=CODE,delta=1
    54                           	psect	text42,global,reloc=2,class=CODE,delta=1
    55                           	psect	intsave_regs,global,class=BIGRAM,space=1,delta=1
    56                           	psect	rparam,global,class=COMRAM,space=1,delta=1
    57                           	dabs	1,0x500,64,_ReceivedDataBuffer
    58                           	dabs	1,0x400,32,_BDT
    59                           	dabs	1,0x540,64,_ToSendDataBuffer
    60                           	dabs	1,0x428,8,_CtrlTrfData
    61                           	dabs	1,0x420,8,_SetupPkt
    62  0000                     
    63                           	psect	smallconst
    64  000800                     __psmallconst:
    65                           	opt stack 0
    66  000800  00                 	db	0
    67  000801                     _USB_SD_Ptr:
    68                           	opt stack 0
    69  000801  E1                 	db	low _sd000
    70  000802  08                 	db	high _sd000
    71  000803  51                 	db	low _sd001
    72  000804  08                 	db	high _sd001
    73  000805  09                 	db	low _sd002
    74  000806  08                 	db	high _sd002
    75  000807                     __end_of_USB_SD_Ptr:
    76                           	opt stack 0
    77  000807                     _USB_CD_Ptr:
    78                           	opt stack 0
    79  000807  89                 	db	low _configDescriptor1
    80  000808  08                 	db	high _configDescriptor1
    81  000809                     __end_of_USB_CD_Ptr:
    82                           	opt stack 0
    83  000809                     _sd002:
    84                           	opt stack 0
    85  000809  48                 	db	72
    86  00080A  03                 	db	3
    87  00080B  0053               	dw	83
    88  00080D  0069               	dw	105
    89  00080F  006D               	dw	109
    90  000811  0070               	dw	112
    91  000813  006C               	dw	108
    92  000815  0065               	dw	101
    93  000817  0020               	dw	32
    94  000819  0048               	dw	72
    95  00081B  0049               	dw	73
    96  00081D  0044               	dw	68
    97  00081F  0020               	dw	32
    98  000821  0044               	dw	68
    99  000823  0065               	dw	101
   100  000825  0076               	dw	118
   101  000827  0069               	dw	105
   102  000829  0063               	dw	99
   103  00082B  0065               	dw	101
   104  00082D  0020               	dw	32
   105  00082F  0044               	dw	68
   106  000831  0065               	dw	101
   107  000833  006D               	dw	109
   108  000835  006F               	dw	111
   109  000837  0020               	dw	32
   110  000839  0028               	dw	40
   111  00083B  002D               	dw	45
   112  00083D  003E               	dw	62
   113  00083F  00                 	db	0
   114  000840  00                 	db	0
   115  000841  00                 	db	0
   116  000842  00                 	db	0
   117  000843  00                 	db	0
   118  000844  00                 	db	0
   119  000845  00                 	db	0
   120  000846  00                 	db	0
   121  000847  00                 	db	0
   122  000848  00                 	db	0
   123  000849  00                 	db	0
   124  00084A  00                 	db	0
   125  00084B  00                 	db	0
   126  00084C  00                 	db	0
   127  00084D  00                 	db	0
   128  00084E  00                 	db	0
   129  00084F  00                 	db	0
   130  000850  00                 	db	0
   131  000851                     __end_of_sd002:
   132                           	opt stack 0
   133  000851                     _sd001:
   134                           	opt stack 0
   135  000851  38                 	db	56
   136  000852  03                 	db	3
   137  000853  0041               	dw	65
   138  000855  0020               	dw	32
   139  000857  004D               	dw	77
   140  000859  0069               	dw	105
   141  00085B  0063               	dw	99
   142  00085D  0072               	dw	114
   143  00085F  006F               	dw	111
   144  000861  0063               	dw	99
   145  000863  0068               	dw	104
   146  000865  0069               	dw	105
   147  000867  0070               	dw	112
   148  000869  0020               	dw	32
   149  00086B  0054               	dw	84
   150  00086D  0065               	dw	101
   151  00086F  0063               	dw	99
   152  000871  0068               	dw	104
   153  000873  006E               	dw	110
   154  000875  006F               	dw	111
   155  000877  006C               	dw	108
   156  000879  006F               	dw	111
   157  00087B  0067               	dw	103
   158  00087D  0079               	dw	121
   159  00087F  0020               	dw	32
   160  000881  0049               	dw	73
   161  000883  006E               	dw	110
   162  000885  0063               	dw	99
   163  000887  002E               	dw	46
   164  000889                     __end_of_sd001:
   165                           	opt stack 0
   166  000889                     _configDescriptor1:
   167                           	opt stack 0
   168  000889  09                 	db	9
   169  00088A  02                 	db	2
   170  00088B  29                 	db	41
   171  00088C  00                 	db	0
   172  00088D  01                 	db	1
   173  00088E  01                 	db	1
   174  00088F  00                 	db	0
   175  000890  C0                 	db	192
   176  000891  32                 	db	50
   177  000892  09                 	db	9
   178  000893  04                 	db	4
   179  000894  00                 	db	0
   180  000895  00                 	db	0
   181  000896  02                 	db	2
   182  000897  03                 	db	3
   183  000898  00                 	db	0
   184  000899  00                 	db	0
   185  00089A  00                 	db	0
   186  00089B  09                 	db	9
   187  00089C  21                 	db	33
   188  00089D  11                 	db	17
   189  00089E  01                 	db	1
   190  00089F  00                 	db	0
   191  0008A0  01                 	db	1
   192  0008A1  22                 	db	34
   193  0008A2  1D                 	db	29
   194  0008A3  00                 	db	0
   195  0008A4  07                 	db	7
   196  0008A5  05                 	db	5
   197  0008A6  81                 	db	129
   198  0008A7  03                 	db	3
   199  0008A8  40                 	db	64
   200  0008A9  00                 	db	0
   201  0008AA  01                 	db	1
   202  0008AB  07                 	db	7
   203  0008AC  05                 	db	5
   204  0008AD  01                 	db	1
   205  0008AE  03                 	db	3
   206  0008AF  40                 	db	64
   207  0008B0  00                 	db	0
   208  0008B1  01                 	db	1
   209  0008B2                     __end_of_configDescriptor1:
   210                           	opt stack 0
   211  0008B2                     _hid_rpt01:
   212                           	opt stack 0
   213  0008B2  06                 	db	6
   214  0008B3  00                 	db	0
   215  0008B4  FF                 	db	255
   216  0008B5  09                 	db	9
   217  0008B6  01                 	db	1
   218  0008B7  A1                 	db	161
   219  0008B8  01                 	db	1
   220  0008B9  19                 	db	25
   221  0008BA  01                 	db	1
   222  0008BB  29                 	db	41
   223  0008BC  40                 	db	64
   224  0008BD  15                 	db	21
   225  0008BE  01                 	db	1
   226  0008BF  26                 	db	38
   227  0008C0  FF                 	db	255
   228  0008C1  00                 	db	0
   229  0008C2  75                 	db	117
   230  0008C3  08                 	db	8
   231  0008C4  95                 	db	149
   232  0008C5  40                 	db	64
   233  0008C6  81                 	db	129
   234  0008C7  00                 	db	0
   235  0008C8  19                 	db	25
   236  0008C9  01                 	db	1
   237  0008CA  29                 	db	41
   238  0008CB  40                 	db	64
   239  0008CC  91                 	db	145
   240  0008CD  00                 	db	0
   241  0008CE  C0                 	db	192
   242  0008CF                     __end_of_hid_rpt01:
   243                           	opt stack 0
   244  0008CF                     _device_dsc:
   245                           	opt stack 0
   246  0008CF  12                 	db	18
   247  0008D0  01                 	db	1
   248  0008D1  0200               	dw	512
   249  0008D3  00                 	db	0
   250  0008D4  00                 	db	0
   251  0008D5  00                 	db	0
   252  0008D6  08                 	db	8
   253  0008D7  04D8               	dw	1240
   254  0008D9  003F               	dw	63
   255  0008DB  0002               	dw	2
   256  0008DD  01                 	db	1
   257  0008DE  02                 	db	2
   258  0008DF  00                 	db	0
   259  0008E0  01                 	db	1
   260  0008E1                     __end_of_device_dsc:
   261                           	opt stack 0
   262  0008E1                     _sd000:
   263                           	opt stack 0
   264  0008E1  04                 	db	4
   265  0008E2  03                 	db	3
   266  0008E3  0409               	dw	1033
   267  0008E5                     __end_of_sd000:
   268                           	opt stack 0
   269  0000                     _ADCON0	set	4034
   270  0000                     _ADCON0bits	set	4034
   271  0000                     _ADCON1	set	4033
   272  0000                     _ADCON2	set	4032
   273  0000                     _ADRESH	set	4036
   274  0000                     _ADRESL	set	4035
   275  0000                     _INTCONbits	set	4082
   276  0000                     _IPR2bits	set	4002
   277  0000                     _LATB	set	3978
   278  0000                     _LATBbits	set	3978
   279  0000                     _PIE1bits	set	3997
   280  0000                     _PIE2bits	set	4000
   281  0000                     _PIR1bits	set	3998
   282  0000                     _PIR2bits	set	4001
   283  0000                     _PORTBbits	set	3969
   284  0000                     _RCONbits	set	4048
   285  0000                     _TRISAbits	set	3986
   286  0000                     _TRISB	set	3987
   287  0000                     _TRISBbits	set	3987
   288  0000                     _UADDR	set	3950
   289  0000                     _UCFG	set	3951
   290  0000                     _UCON	set	3949
   291  0000                     _UCONbits	set	3949
   292  0000                     _UEIE	set	3947
   293  0000                     _UEIR	set	3946
   294  0000                     _UEP0bits	set	3952
   295  0000                     _UIE	set	3945
   296  0000                     _UIEbits	set	3945
   297  0000                     _UIR	set	3944
   298  0000                     _UIRbits	set	3944
   299  0000                     _USTAT	set	3948
   300  0000                     _UEP0	set	3952
   301  0000                     _UEP1	set	3953
   302                           
   303                           ; #config settings
   304  0008E5  00                 	db	0	; dummy byte at the end
   305  0000                     
   306                           	psect	cinit
   307  002240                     __pcinit:
   308                           	opt stack 0
   309  002240                     start_initialization:
   310                           	opt stack 0
   311  002240                     __initialization:
   312                           	opt stack 0
   313                           
   314                           ; Clear objects allocated to BANK0 (32 bytes)
   315  002240  EE00  F060         	lfsr	0,__pbssBANK0
   316  002244  0E20               	movlw	32
   317  002246                     clear_0:
   318  002246  6AEE               	clrf	postinc0,c
   319  002248  06E8               	decf	wreg,f,c
   320  00224A  E1FD               	bnz	clear_0
   321                           
   322                           ; Clear objects allocated to COMRAM (27 bytes)
   323  00224C  EE00  F030         	lfsr	0,__pbssCOMRAM
   324  002250  0E1B               	movlw	27
   325  002252                     clear_1:
   326  002252  6AEE               	clrf	postinc0,c
   327  002254  06E8               	decf	wreg,f,c
   328  002256  E1FD               	bnz	clear_1
   329  002258                     end_of_initialization:
   330                           	opt stack 0
   331  002258                     __end_of__initialization:
   332                           	opt stack 0
   333  002258  0E00               	movlw	low (__Lmediumconst shr (0+16))
   334  00225A  6EF8               	movwf	tblptru,c
   335  00225C  0100               	movlb	0
   336  00225E  EFF6  F010         	goto	_main	;jump to C main() function
   337                           tblptru	equ	0xFF8
   338                           postinc0	equ	0xFEE
   339                           wreg	equ	0xFE8
   340                           
   341                           	psect	bssCOMRAM
   342  000030                     __pbssCOMRAM:
   343                           	opt stack 0
   344  000030                     APP_LEDUpdateUSBStatus@ledCount:
   345                           	opt stack 0
   346  000030                     	ds	2
   347  000032                     USBCBSendResume@delay_count:
   348                           	opt stack 0
   349  000032                     	ds	2
   350  000034                     _pBDTEntryEP0OutCurrent:
   351                           	opt stack 0
   352  000034                     	ds	2
   353  000036                     _pBDTEntryEP0OutNext:
   354                           	opt stack 0
   355  000036                     	ds	2
   356  000038                     _pDst:
   357                           	opt stack 0
   358  000038                     	ds	2
   359  00003A                     _BothEP0OutUOWNsSet:
   360                           	opt stack 0
   361  00003A                     	ds	1
   362  00003B                     _RemoteWakeup:
   363                           	opt stack 0
   364  00003B                     	ds	1
   365  00003C                     _USBBusIsSuspended:
   366                           	opt stack 0
   367  00003C                     	ds	1
   368  00003D                     _USBDeferINDataStagePackets:
   369                           	opt stack 0
   370  00003D                     	ds	1
   371  00003E                     _USBDeferOUTDataStagePackets:
   372                           	opt stack 0
   373  00003E                     	ds	1
   374  00003F                     _USBDeferStatusStagePacket:
   375                           	opt stack 0
   376  00003F                     	ds	1
   377  000040                     _USBStatusStageEnabledFlag1:
   378                           	opt stack 0
   379  000040                     	ds	1
   380  000041                     _USBStatusStageEnabledFlag2:
   381                           	opt stack 0
   382  000041                     	ds	1
   383  000042                     _USBStatusStageTimeoutCounter:
   384                           	opt stack 0
   385  000042                     	ds	1
   386  000043                     _controlTransferState:
   387                           	opt stack 0
   388  000043                     	ds	1
   389  000044                     _endpoint_number:
   390                           	opt stack 0
   391  000044                     	ds	1
   392  000045                     _shortPacketStatus:
   393                           	opt stack 0
   394  000045                     	ds	1
   395  000046                     _USBActiveConfiguration:
   396                           	opt stack 0
   397  000046                     	ds	1
   398  000047                     _USBAlternateInterface:
   399                           	opt stack 0
   400  000047                     	ds	1
   401  000048                     _USTATcopy:
   402                           	opt stack 0
   403  000048                     	ds	1
   404  000049                     _active_protocol:
   405                           	opt stack 0
   406  000049                     	ds	1
   407  00004A                     _idle_rate:
   408                           	opt stack 0
   409  00004A                     	ds	1
   410                           tblptru	equ	0xFF8
   411                           postinc0	equ	0xFEE
   412                           wreg	equ	0xFE8
   413                           
   414                           	psect	bssBANK0
   415  000060                     __pbssBANK0:
   416                           	opt stack 0
   417  000060                     _outPipes:
   418                           	opt stack 0
   419  000060                     	ds	8
   420  000068                     _pBDTEntryIn:
   421                           	opt stack 0
   422  000068                     	ds	4
   423  00006C                     _pBDTEntryOut:
   424                           	opt stack 0
   425  00006C                     	ds	4
   426  000070                     _USBInHandle:
   427                           	opt stack 0
   428  000070                     	ds	2
   429  000072                     _USBOutHandle:
   430                           	opt stack 0
   431  000072                     	ds	2
   432  000074                     _ep_data_in:
   433                           	opt stack 0
   434  000074                     	ds	2
   435  000076                     _ep_data_out:
   436                           	opt stack 0
   437  000076                     	ds	2
   438  000078                     _USBDeviceState:
   439                           	opt stack 0
   440  000078                     	ds	1
   441  000079                     __doTransmit:
   442                           	opt stack 0
   443  000079                     	ds	1
   444  00007A                     _inPipes:
   445                           	opt stack 0
   446  00007A                     	ds	6
   447                           tblptru	equ	0xFF8
   448                           postinc0	equ	0xFEE
   449                           wreg	equ	0xFE8
   450                           
   451                           	psect	cstackBANK0
   452  000080                     __pcstackBANK0:
   453                           	opt stack 0
   454  000080                     ??_SYS_InterruptHigh:
   455                           
   456                           ; 0 bytes @ 0x0
   457  000080                     	ds	14
   458  00008E                     ?_USBTransferOnePacket:
   459                           	opt stack 0
   460  00008E                     USBTransferOnePacket@dir:
   461                           	opt stack 0
   462  00008E                     OpenADC@config2:
   463                           	opt stack 0
   464  00008E                     memset@p1:
   465                           	opt stack 0
   466                           
   467                           ; 2 bytes @ 0xE
   468  00008E                     	ds	1
   469  00008F                     OpenADC@portconfig:
   470                           	opt stack 0
   471  00008F                     USBTransferOnePacket@data:
   472                           	opt stack 0
   473                           
   474                           ; 2 bytes @ 0xF
   475  00008F                     	ds	1
   476  000090                     ??_OpenADC:
   477  000090                     memset@c:
   478                           	opt stack 0
   479                           
   480                           ; 2 bytes @ 0x10
   481  000090                     	ds	1
   482  000091                     USBTransferOnePacket@len:
   483                           	opt stack 0
   484                           
   485                           ; 1 bytes @ 0x11
   486  000091                     	ds	1
   487  000092                     USBTransferOnePacket@ep:
   488                           	opt stack 0
   489  000092                     OpenADC@config:
   490                           	opt stack 0
   491  000092                     memset@n:
   492                           	opt stack 0
   493                           
   494                           ; 2 bytes @ 0x12
   495  000092                     	ds	1
   496  000093                     SYSTEM_Initialize@state:
   497                           	opt stack 0
   498  000093                     USBTransferOnePacket@handle:
   499                           	opt stack 0
   500                           
   501                           ; 2 bytes @ 0x13
   502  000093                     	ds	1
   503  000094                     memset@p:
   504                           	opt stack 0
   505                           
   506                           ; 2 bytes @ 0x14
   507  000094                     	ds	2
   508  000096                     ??_APP_CustomHIDTasks:
   509  000096                     USBDeviceInit@i:
   510                           	opt stack 0
   511                           
   512                           ; 1 bytes @ 0x16
   513  000096                     	ds	1
   514  000097                     _APP_CustomHIDTasks$326:
   515                           	opt stack 0
   516                           
   517                           ; 2 bytes @ 0x17
   518  000097                     	ds	2
   519  000099                     _APP_CustomHIDTasks$376:
   520                           	opt stack 0
   521                           
   522                           ; 2 bytes @ 0x19
   523  000099                     	ds	2
   524  00009B                     tblptru	equ	0xFF8
   525                           postinc0	equ	0xFEE
   526                           wreg	equ	0xFE8
   527                           
   528                           ; 0 bytes @ 0x1B
   529                           
   530                           	psect	cstackCOMRAM
   531  000001                     __pcstackCOMRAM:
   532                           	opt stack 0
   533  000001                     ??_SYS_InterruptLow:
   534  000001                     
   535                           ; 1 bytes @ 0x0
   536  000001                     	ds	17
   537  000012                     ??_USBStdGetDscHandler:
   538  000012                     ??_USBStdGetStatusHandler:
   539  000012                     ?i2_USBTransferOnePacket:
   540                           	opt stack 0
   541  000012                     USBConfigureEndpoint@direction:
   542                           	opt stack 0
   543  000012                     USBCtrlTrfTxService@byteToSend:
   544                           	opt stack 0
   545  000012                     USBCtrlTrfRxService@i:
   546                           	opt stack 0
   547  000012                     i2USBTransferOnePacket@dir:
   548                           	opt stack 0
   549  000012                     i2memset@p1:
   550                           	opt stack 0
   551                           
   552                           ; 2 bytes @ 0x11
   553  000012                     	ds	1
   554  000013                     ??_USBConfigureEndpoint:
   555  000013                     USBCtrlTrfRxService@byteToRead:
   556                           	opt stack 0
   557  000013                     USBCtrlTrfInHandler@lastDTS:
   558                           	opt stack 0
   559  000013                     USBStdGetStatusHandler@p:
   560                           	opt stack 0
   561  000013                     i2USBTransferOnePacket@data:
   562                           	opt stack 0
   563                           
   564                           ; 2 bytes @ 0x12
   565  000013                     	ds	1
   566  000014                     i2memset@c:
   567                           	opt stack 0
   568                           
   569                           ; 2 bytes @ 0x13
   570  000014                     	ds	1
   571  000015                     i2USBTransferOnePacket@len:
   572                           	opt stack 0
   573                           
   574                           ; 1 bytes @ 0x14
   575  000015                     	ds	1
   576  000016                     i2USBTransferOnePacket@ep:
   577                           	opt stack 0
   578  000016                     i2memset@n:
   579                           	opt stack 0
   580                           
   581                           ; 2 bytes @ 0x15
   582  000016                     	ds	1
   583  000017                     USBConfigureEndpoint@EPNum:
   584                           	opt stack 0
   585  000017                     i2USBTransferOnePacket@handle:
   586                           	opt stack 0
   587                           
   588                           ; 2 bytes @ 0x16
   589  000017                     	ds	1
   590  000018                     USBConfigureEndpoint@handle:
   591                           	opt stack 0
   592  000018                     i2memset@p:
   593                           	opt stack 0
   594                           
   595                           ; 2 bytes @ 0x17
   596  000018                     	ds	2
   597  00001A                     USBEnableEndpoint@options:
   598                           	opt stack 0
   599  00001A                     i2USBDeviceInit@i:
   600                           	opt stack 0
   601                           
   602                           ; 1 bytes @ 0x19
   603  00001A                     	ds	1
   604  00001B                     USBEnableEndpoint@p:
   605                           	opt stack 0
   606                           
   607                           ; 2 bytes @ 0x1A
   608  00001B                     	ds	2
   609  00001D                     USBEnableEndpoint@ep:
   610                           	opt stack 0
   611                           
   612                           ; 1 bytes @ 0x1C
   613  00001D                     	ds	1
   614  00001E                     USER_USB_CALLBACK_EVENT_HANDLER@event:
   615                           	opt stack 0
   616                           
   617                           ; 2 bytes @ 0x1D
   618  00001E                     	ds	2
   619  000020                     USER_USB_CALLBACK_EVENT_HANDLER@pdata:
   620                           	opt stack 0
   621                           
   622                           ; 2 bytes @ 0x1F
   623  000020                     	ds	2
   624  000022                     USER_USB_CALLBACK_EVENT_HANDLER@size:
   625                           	opt stack 0
   626                           
   627                           ; 2 bytes @ 0x21
   628  000022                     	ds	2
   629  000024                     ??_USER_USB_CALLBACK_EVENT_HANDLER:
   630                           
   631                           ; 0 bytes @ 0x23
   632  000024                     	ds	2
   633  000026                     ??_USBStdFeatureReqHandler:
   634  000026                     USBStdSetCfgHandler@i:
   635                           	opt stack 0
   636                           
   637                           ; 1 bytes @ 0x25
   638  000026                     	ds	1
   639  000027                     USBStdFeatureReqHandler@pUEP:
   640                           	opt stack 0
   641                           
   642                           ; 2 bytes @ 0x26
   643  000027                     	ds	2
   644  000029                     USBStdFeatureReqHandler@current_ep_data:
   645                           	opt stack 0
   646                           
   647                           ; 1 bytes @ 0x28
   648  000029                     	ds	1
   649  00002A                     USBStdFeatureReqHandler@p:
   650                           	opt stack 0
   651                           
   652                           ; 2 bytes @ 0x29
   653  00002A                     	ds	2
   654  00002C                     ??_USBCtrlEPService:
   655  00002C                     
   656                           ; 0 bytes @ 0x2B
   657  00002C                     	ds	2
   658  00002E                     USBCtrlEPService@setup_cnt:
   659                           	opt stack 0
   660                           
   661                           ; 1 bytes @ 0x2D
   662  00002E                     	ds	1
   663  00002F                     USBDeviceTasks@i:
   664                           	opt stack 0
   665                           
   666                           ; 1 bytes @ 0x2E
   667  00002F                     	ds	1
   668                           tblptru	equ	0xFF8
   669                           postinc0	equ	0xFEE
   670                           wreg	equ	0xFE8
   671                           
   672 ;;
   673 ;;Main: autosize = 0, tempsize = 0, incstack = 0, save=0
   674 ;;
   675 ;; *************** function _main *****************
   676 ;; Defined at:
   677 ;;		line 50 in file "../src/main_hid.c"
   678 ;; Parameters:    Size  Location     Type
   679 ;;		None
   680 ;; Auto vars:     Size  Location     Type
   681 ;;		None
   682 ;; Return value:  Size  Location     Type
   683 ;;		None               void
   684 ;; Registers used:
   685 ;;		wreg, fsr2l, fsr2h, status,2, status,0, prodl, prodh, cstack
   686 ;; Tracked objects:
   687 ;;		On entry : 0/0
   688 ;;		On exit  : 0/0
   689 ;;		Unchanged: 0/0
   690 ;; Data sizes:     COMRAM   BANK0   BANK1   BANK2   BANK3   BANK4   BANK5   BANK6   BANK7
   691 ;;      Params:         0       0       0       0       0       0       0       0       0
   692 ;;      Locals:         0       0       0       0       0       0       0       0       0
   693 ;;      Temps:          0       0       0       0       0       0       0       0       0
   694 ;;      Totals:         0       0       0       0       0       0       0       0       0
   695 ;;Total ram usage:        0 bytes
   696 ;; Hardware stack levels required when called:   14
   697 ;; This function calls:
   698 ;;		_APP_CustomHIDTasks
   699 ;;		_SYSTEM_Initialize
   700 ;;		_USBDeviceAttach
   701 ;;		_USBDeviceInit
   702 ;; This function is called by:
   703 ;;		Startup code after reset
   704 ;; This function uses a non-reentrant model
   705 ;;
   706                           
   707                           	psect	text0
   708  0021EC                     __ptext0:
   709                           	opt stack 0
   710  0021EC                     _main:
   711                           	opt stack 17
   712                           
   713                           ;main_hid.c: 52: SYSTEM_Initialize(SYSTEM_STATE_USB_START);
   714                           
   715                           ;incstack = 0
   716  0021EC  0E00               	movlw	0
   717  0021EE  ECAD  F010         	call	_SYSTEM_Initialize
   718                           
   719                           ;main_hid.c: 54: USBDeviceInit();
   720  0021F2  EC84  F006         	call	_USBDeviceInit	;wreg free
   721                           
   722                           ;main_hid.c: 56: USBDeviceAttach();
   723  0021F6  EC5C  F010         	call	_USBDeviceAttach	;wreg free
   724  0021FA  D000               	goto	l3686
   725  0021FC                     l3686:
   726                           
   727                           ;main_hid.c: 60: {
   728                           ;main_hid.c: 61: ;
   729                           ;main_hid.c: 82: if( USBDeviceState < CONFIGURED_STATE ){
   730  0021FC  0E20               	movlw	32
   731  0021FE  0100               	movlb	0	; () banked
   732  002200  6178               	cpfslt	_USBDeviceState& (0+255),b	;volatile
   733  002202  D001               	goto	l147
   734                           
   735                           ; BSR set to: 0
   736                           ;main_hid.c: 84: continue;
   737  002204  D7FB               	goto	l3686
   738  002206                     l147:
   739                           
   740                           ; BSR set to: 0
   741                           ;main_hid.c: 85: }
   742                           ;main_hid.c: 91: if( UCONbits.SUSPND == 1 ){
   743  002206  B26D               	btfsc	3949,1,c	;volatile
   744  002208  D7F9               	goto	l3686
   745  00220A  D001               	goto	l3692
   746                           
   747                           ; BSR set to: 0
   748                           ;main_hid.c: 93: continue;
   749  00220C  D7F7               	goto	l3686
   750  00220E                     l3692:
   751                           
   752                           ; BSR set to: 0
   753                           ;main_hid.c: 94: }
   754                           ;main_hid.c: 97: APP_CustomHIDTasks();
   755  00220E  ECBF  F005         	call	_APP_CustomHIDTasks	;wreg free
   756  002212  D7F4               	goto	l3686
   757  002214  EF51  F000         	goto	start
   758  002218                     __end_of_main:
   759                           	opt stack 0
   760                           tblptru	equ	0xFF8
   761                           postinc0	equ	0xFEE
   762                           wreg	equ	0xFE8
   763                           
   764 ;; *************** function _USBDeviceInit *****************
   765 ;; Defined at:
   766 ;;		line 298 in file "../src/usb/src/usb_device.c"
   767 ;; Parameters:    Size  Location     Type
   768 ;;		None
   769 ;; Auto vars:     Size  Location     Type
   770 ;;  i               1   22[BANK0 ] unsigned char 
   771 ;; Return value:  Size  Location     Type
   772 ;;		None               void
   773 ;; Registers used:
   774 ;;		wreg, fsr2l, fsr2h, status,2, status,0, prodl, prodh, cstack
   775 ;; Tracked objects:
   776 ;;		On entry : 0/0
   777 ;;		On exit  : 0/0
   778 ;;		Unchanged: 0/0
   779 ;; Data sizes:     COMRAM   BANK0   BANK1   BANK2   BANK3   BANK4   BANK5   BANK6   BANK7
   780 ;;      Params:         0       0       0       0       0       0       0       0       0
   781 ;;      Locals:         0       1       0       0       0       0       0       0       0
   782 ;;      Temps:          0       0       0       0       0       0       0       0       0
   783 ;;      Totals:         0       1       0       0       0       0       0       0       0
   784 ;;Total ram usage:        1 bytes
   785 ;; Hardware stack levels used:    1
   786 ;; Hardware stack levels required when called:   12
   787 ;; This function calls:
   788 ;;		_memset
   789 ;; This function is called by:
   790 ;;		_main
   791 ;; This function uses a non-reentrant model
   792 ;;
   793                           
   794                           	psect	text1
   795  000D08                     __ptext1:
   796                           	opt stack 0
   797  000D08                     _USBDeviceInit:
   798                           	opt stack 18
   799                           
   800                           ;usb_device.c: 300: uint8_t i;
   801                           ;usb_device.c: 302: {PIE2bits.USBIE = 0;};
   802                           
   803                           ;incstack = 0
   804  000D08  9AA0               	bcf	4000,5,c	;volatile
   805                           
   806                           ;usb_device.c: 305: {UEIR = 0;};
   807  000D0A  0E00               	movlw	0
   808  000D0C  6E6A               	movwf	3946,c	;volatile
   809                           
   810                           ;usb_device.c: 308: {UIR = 0;};
   811  000D0E  0E00               	movlw	0
   812  000D10  6E68               	movwf	3944,c	;volatile
   813                           
   814                           ;usb_device.c: 311: UEP0 = 0;
   815  000D12  0E00               	movlw	0
   816  000D14  6E70               	movwf	3952,c	;volatile
   817                           
   818                           ;usb_device.c: 313: memset((void*)&UEP1,0x00,(1));;
   819  000D16  0E71               	movlw	113
   820  000D18  0100               	movlb	0	; () banked
   821  000D1A  6F8E               	movwf	memset@p1& (0+255),b
   822  000D1C  0E0F               	movlw	15
   823  000D1E  0100               	movlb	0	; () banked
   824  000D20  6F8F               	movwf	(memset@p1+1)& (0+255),b
   825  000D22  0E00               	movlw	0
   826  000D24  0100               	movlb	0	; () banked
   827  000D26  6F91               	movwf	(memset@c+1)& (0+255),b
   828  000D28  0E00               	movlw	0
   829  000D2A  6F90               	movwf	memset@c& (0+255),b
   830  000D2C  0E00               	movlw	0
   831  000D2E  0100               	movlb	0	; () banked
   832  000D30  6F93               	movwf	(memset@n+1)& (0+255),b
   833  000D32  0E01               	movlw	1
   834  000D34  6F92               	movwf	memset@n& (0+255),b
   835  000D36  EC77  F010         	call	_memset	;wreg free
   836                           
   837                           ;usb_device.c: 315: { UCFG = 0x10 | 0x00 | 0x04 | 0x02; UEIE = 0x9F; UIE = 0x39 | 0x40 |
      +                           0x02; };
   838  000D3A  0E16               	movlw	22
   839  000D3C  6E6F               	movwf	3951,c	;volatile
   840  000D3E  0E9F               	movlw	159
   841  000D40  6E6B               	movwf	3947,c	;volatile
   842  000D42  0E7B               	movlw	123
   843  000D44  6E69               	movwf	3945,c	;volatile
   844                           
   845                           ;usb_device.c: 318: ;
   846                           ;usb_device.c: 321: ;
   847                           ;usb_device.c: 324: for(i=0;i<(sizeof(BDT)/sizeof(BDT_ENTRY));i++)
   848  000D46  0E00               	movlw	0
   849  000D48  0100               	movlb	0	; () banked
   850  000D4A  6F96               	movwf	USBDeviceInit@i& (0+255),b
   851  000D4C  D010               	goto	l3458
   852                           
   853                           ; BSR set to: 0
   854                           
   855                           ; BSR set to: 0
   856  000D4E  D013               	goto	l342
   857  000D50                     l3454:
   858                           
   859                           ; BSR set to: 0
   860                           ;usb_device.c: 325: {
   861                           ;usb_device.c: 326: BDT[i].Val = 0x00;
   862  000D50  0100               	movlb	0	; () banked
   863  000D52  5196               	movf	USBDeviceInit@i& (0+255),w,b
   864  000D54  0D04               	mullw	4
   865  000D56  0E00               	movlw	0
   866  000D58  24F3               	addwf	prodl,w,c
   867  000D5A  6ED9               	movwf	fsr2l,c
   868  000D5C  0E04               	movlw	4
   869  000D5E  20F4               	addwfc	prodh,w,c
   870  000D60  6EDA               	movwf	fsr2h,c
   871  000D62  6ADE               	clrf	postinc2,c
   872  000D64  6ADE               	clrf	postinc2,c
   873  000D66  6ADE               	clrf	postinc2,c
   874  000D68  6ADD               	clrf	postdec2,c
   875                           
   876                           ; BSR set to: 0
   877  000D6A  0100               	movlb	0	; () banked
   878  000D6C  2B96               	incf	USBDeviceInit@i& (0+255),f,b
   879  000D6E                     l3458:
   880                           
   881                           ; BSR set to: 0
   882  000D6E  0E07               	movlw	7
   883  000D70  0100               	movlb	0	; () banked
   884  000D72  6596               	cpfsgt	USBDeviceInit@i& (0+255),b
   885  000D74  D7ED               	goto	l3454
   886  000D76                     l342:
   887                           
   888                           ; BSR set to: 0
   889                           ;usb_device.c: 327: }
   890                           ;usb_device.c: 330: UCONbits.PPBRST = 1;
   891  000D76  8C6D               	bsf	3949,6,c	;volatile
   892                           
   893                           ; BSR set to: 0
   894                           ;usb_device.c: 333: UADDR = 0x00;
   895  000D78  0E00               	movlw	0
   896  000D7A  6E6E               	movwf	3950,c	;volatile
   897                           
   898                           ; BSR set to: 0
   899                           ;usb_device.c: 336: UCONbits.PKTDIS = 0;
   900  000D7C  986D               	bcf	3949,4,c	;volatile
   901                           
   902                           ; BSR set to: 0
   903                           ;usb_device.c: 339: UCONbits.PPBRST = 0;
   904  000D7E  9C6D               	bcf	3949,6,c	;volatile
   905                           
   906                           ;usb_device.c: 342: while(UIRbits.TRNIF == 1)
   907  000D80  D00D               	goto	l3474
   908  000D82                     l3466:
   909                           
   910                           ; BSR set to: 0
   911                           ;usb_device.c: 343: {
   912                           ;usb_device.c: 344: (UIR &= 0xF7);
   913  000D82  9668               	bcf	3944,3,c	;volatile
   914                           
   915                           ; BSR set to: 0
   916                           ;usb_device.c: 346: inPipes[0].info.Val = 0;
   917  000D84  0E00               	movlw	0
   918  000D86  0100               	movlb	0	; () banked
   919  000D88  6F7D               	movwf	(_inPipes+3)& (0+255),b	;volatile
   920                           
   921                           ; BSR set to: 0
   922                           ;usb_device.c: 347: outPipes[0].info.Val = 0;
   923  000D8A  0E00               	movlw	0
   924  000D8C  0100               	movlb	0	; () banked
   925  000D8E  6F63               	movwf	(_outPipes+3)& (0+255),b	;volatile
   926                           
   927                           ; BSR set to: 0
   928                           ;usb_device.c: 348: outPipes[0].wCount.Val = 0;
   929  000D90  0E00               	movlw	0
   930  000D92  0100               	movlb	0	; () banked
   931  000D94  6F65               	movwf	(_outPipes+5)& (0+255),b	;volatile
   932  000D96  0E00               	movlw	0
   933  000D98  6F64               	movwf	(_outPipes+4)& (0+255),b	;volatile
   934  000D9A  D000               	goto	l3474
   935  000D9C                     l3474:
   936                           
   937                           ; BSR set to: 0
   938  000D9C  B668               	btfsc	3944,3,c	;volatile
   939  000D9E  D7F1               	goto	l3466
   940                           
   941                           ; BSR set to: 0
   942                           ;usb_device.c: 349: }
   943                           ;usb_device.c: 353: USBStatusStageEnabledFlag1 = 1;
   944                           
   945                           ; BSR set to: 0
   946  000DA0  0E01               	movlw	1
   947  000DA2  6E40               	movwf	_USBStatusStageEnabledFlag1,c	;volatile
   948                           
   949                           ;usb_device.c: 354: USBStatusStageEnabledFlag2 = 1;
   950  000DA4  0E01               	movlw	1
   951  000DA6  6E41               	movwf	_USBStatusStageEnabledFlag2,c	;volatile
   952                           
   953                           ;usb_device.c: 356: USBDeferINDataStagePackets = 0;
   954  000DA8  0E00               	movlw	0
   955  000DAA  6E3D               	movwf	_USBDeferINDataStagePackets,c	;volatile
   956                           
   957                           ;usb_device.c: 357: USBDeferOUTDataStagePackets = 0;
   958  000DAC  0E00               	movlw	0
   959  000DAE  6E3E               	movwf	_USBDeferOUTDataStagePackets,c	;volatile
   960                           
   961                           ;usb_device.c: 358: USBBusIsSuspended = 0;
   962  000DB0  0E00               	movlw	0
   963  000DB2  6E3C               	movwf	_USBBusIsSuspended,c	;volatile
   964                           
   965                           ;usb_device.c: 362: for(i = 0; i < (uint8_t)(1+1u); i++)
   966  000DB4  0E00               	movlw	0
   967  000DB6  0100               	movlb	0	; () banked
   968  000DB8  6F96               	movwf	USBDeviceInit@i& (0+255),b
   969  000DBA                     l3478:
   970                           
   971                           ; BSR set to: 0
   972  000DBA  0E01               	movlw	1
   973  000DBC  0100               	movlb	0	; () banked
   974  000DBE  6596               	cpfsgt	USBDeviceInit@i& (0+255),b
   975  000DC0  D001               	goto	l3482
   976                           
   977                           ; BSR set to: 0
   978  000DC2  D033               	goto	l3488
   979  000DC4                     l3482:
   980                           
   981                           ; BSR set to: 0
   982                           ;usb_device.c: 363: {
   983                           ;usb_device.c: 364: pBDTEntryIn[i] = 0u;
   984  000DC4  0100               	movlb	0	; () banked
   985  000DC6  5196               	movf	USBDeviceInit@i& (0+255),w,b
   986  000DC8  0D02               	mullw	2
   987  000DCA  0E68               	movlw	low _pBDTEntryIn
   988  000DCC  24F3               	addwf	prodl,w,c
   989  000DCE  6ED9               	movwf	fsr2l,c
   990  000DD0  0E00               	movlw	high _pBDTEntryIn
   991  000DD2  20F4               	addwfc	prodh,w,c
   992  000DD4  6EDA               	movwf	fsr2h,c
   993  000DD6  0E00               	movlw	0
   994  000DD8  6EDE               	movwf	postinc2,c
   995  000DDA  0E00               	movlw	0
   996  000DDC  6EDD               	movwf	postdec2,c
   997                           
   998                           ;usb_device.c: 365: pBDTEntryOut[i] = 0u;
   999  000DDE  0100               	movlb	0	; () banked
  1000  000DE0  5196               	movf	USBDeviceInit@i& (0+255),w,b
  1001  000DE2  0D02               	mullw	2
  1002  000DE4  0E6C               	movlw	low _pBDTEntryOut
  1003  000DE6  24F3               	addwf	prodl,w,c
  1004  000DE8  6ED9               	movwf	fsr2l,c
  1005  000DEA  0E00               	movlw	high _pBDTEntryOut
  1006  000DEC  20F4               	addwfc	prodh,w,c
  1007  000DEE  6EDA               	movwf	fsr2h,c
  1008  000DF0  0E00               	movlw	0
  1009  000DF2  6EDE               	movwf	postinc2,c
  1010  000DF4  0E00               	movlw	0
  1011  000DF6  6EDD               	movwf	postdec2,c
  1012                           
  1013                           ;usb_device.c: 366: ep_data_in[i].Val = 0u;
  1014  000DF8  0100               	movlb	0	; () banked
  1015  000DFA  5196               	movf	USBDeviceInit@i& (0+255),w,b
  1016  000DFC  0D01               	mullw	1
  1017  000DFE  0E74               	movlw	low _ep_data_in
  1018  000E00  24F3               	addwf	prodl,w,c
  1019  000E02  6ED9               	movwf	fsr2l,c
  1020  000E04  0E00               	movlw	high _ep_data_in
  1021  000E06  20F4               	addwfc	prodh,w,c
  1022  000E08  6EDA               	movwf	fsr2h,c
  1023  000E0A  0E00               	movlw	0
  1024  000E0C  6EDF               	movwf	indf2,c
  1025                           
  1026                           ;usb_device.c: 367: ep_data_out[i].Val = 0u;
  1027  000E0E  0100               	movlb	0	; () banked
  1028  000E10  5196               	movf	USBDeviceInit@i& (0+255),w,b
  1029  000E12  0D01               	mullw	1
  1030  000E14  0E76               	movlw	low _ep_data_out
  1031  000E16  24F3               	addwf	prodl,w,c
  1032  000E18  6ED9               	movwf	fsr2l,c
  1033  000E1A  0E00               	movlw	high _ep_data_out
  1034  000E1C  20F4               	addwfc	prodh,w,c
  1035  000E1E  6EDA               	movwf	fsr2h,c
  1036  000E20  0E00               	movlw	0
  1037  000E22  6EDF               	movwf	indf2,c
  1038                           
  1039                           ; BSR set to: 0
  1040  000E24  0100               	movlb	0	; () banked
  1041  000E26  2B96               	incf	USBDeviceInit@i& (0+255),f,b
  1042  000E28  D7C8               	goto	l3478
  1043  000E2A                     l3488:
  1044                           
  1045                           ; BSR set to: 0
  1046                           ;usb_device.c: 368: }
  1047                           ;usb_device.c: 371: pBDTEntryIn[0] = (volatile BDT_ENTRY*)&BDT[2];
  1048  000E2A  0E08               	movlw	8
  1049  000E2C  0100               	movlb	0	; () banked
  1050  000E2E  6F68               	movwf	_pBDTEntryIn& (0+255),b
  1051  000E30  0E04               	movlw	4
  1052  000E32  0100               	movlb	0	; () banked
  1053  000E34  6F69               	movwf	(_pBDTEntryIn+1)& (0+255),b
  1054                           
  1055                           ; BSR set to: 0
  1056                           ;usb_device.c: 373: UEP0 = 0x06|0x10;
  1057  000E36  0E16               	movlw	22
  1058  000E38  6E70               	movwf	3952,c	;volatile
  1059                           
  1060                           ; BSR set to: 0
  1061                           ;usb_device.c: 375: BDT[0].ADR = ((uint16_t)(&SetupPkt));
  1062  000E3A  0E04               	movlw	4
  1063  000E3C  0104               	movlb	4	; () banked
  1064  000E3E  6F03               	movwf	3,b	;volatile
  1065  000E40  0E20               	movlw	32
  1066  000E42  6F02               	movwf	2,b	;volatile
  1067                           
  1068                           ; BSR set to: 4
  1069                           ;usb_device.c: 376: BDT[0].CNT = 8;
  1070  000E44  0E08               	movlw	8
  1071  000E46  0104               	movlb	4	; () banked
  1072  000E48  6F01               	movwf	1,b	;volatile
  1073                           
  1074                           ; BSR set to: 4
  1075                           ;usb_device.c: 377: BDT[0].STAT.Val = 0x00|0x04;
  1076  000E4A  0E04               	movlw	4
  1077  000E4C  0104               	movlb	4	; () banked
  1078  000E4E  6F00               	movwf	0,b	;volatile
  1079                           
  1080                           ; BSR set to: 4
  1081                           ;usb_device.c: 378: BDT[0].STAT.Val |= 0x80;
  1082  000E50  0104               	movlb	4	; () banked
  1083  000E52  8F00               	bsf	0,7,b	;volatile
  1084                           
  1085                           ; BSR set to: 4
  1086                           ;usb_device.c: 381: USBActiveConfiguration = 0;
  1087  000E54  0E00               	movlw	0
  1088  000E56  6E46               	movwf	_USBActiveConfiguration,c	;volatile
  1089                           
  1090                           ; BSR set to: 4
  1091                           ;usb_device.c: 384: USBDeviceState = DETACHED_STATE;
  1092  000E58  0E00               	movlw	0
  1093  000E5A  0100               	movlb	0	; () banked
  1094  000E5C  6F78               	movwf	_USBDeviceState& (0+255),b	;volatile
  1095                           
  1096                           ; BSR set to: 0
  1097  000E5E  0012               	return		;funcret
  1098  000E60                     __end_of_USBDeviceInit:
  1099                           	opt stack 0
  1100                           tblptru	equ	0xFF8
  1101                           prodh	equ	0xFF4
  1102                           prodl	equ	0xFF3
  1103                           postinc0	equ	0xFEE
  1104                           wreg	equ	0xFE8
  1105                           indf2	equ	0xFDF
  1106                           postinc2	equ	0xFDE
  1107                           postdec2	equ	0xFDD
  1108                           fsr2h	equ	0xFDA
  1109                           fsr2l	equ	0xFD9
  1110                           
  1111 ;; *************** function _USBDeviceAttach *****************
  1112 ;; Defined at:
  1113 ;;		line 1352 in file "../src/usb/src/usb_device.c"
  1114 ;; Parameters:    Size  Location     Type
  1115 ;;		None
  1116 ;; Auto vars:     Size  Location     Type
  1117 ;;		None
  1118 ;; Return value:  Size  Location     Type
  1119 ;;		None               void
  1120 ;; Registers used:
  1121 ;;		wreg, status,2
  1122 ;; Tracked objects:
  1123 ;;		On entry : 0/0
  1124 ;;		On exit  : 0/0
  1125 ;;		Unchanged: 0/0
  1126 ;; Data sizes:     COMRAM   BANK0   BANK1   BANK2   BANK3   BANK4   BANK5   BANK6   BANK7
  1127 ;;      Params:         0       0       0       0       0       0       0       0       0
  1128 ;;      Locals:         0       0       0       0       0       0       0       0       0
  1129 ;;      Temps:          0       0       0       0       0       0       0       0       0
  1130 ;;      Totals:         0       0       0       0       0       0       0       0       0
  1131 ;;Total ram usage:        0 bytes
  1132 ;; Hardware stack levels used:    1
  1133 ;; Hardware stack levels required when called:   11
  1134 ;; This function calls:
  1135 ;;		Nothing
  1136 ;; This function is called by:
  1137 ;;		_main
  1138 ;; This function uses a non-reentrant model
  1139 ;;
  1140                           
  1141                           	psect	text2
  1142  0020B8                     __ptext2:
  1143                           	opt stack 0
  1144  0020B8                     _USBDeviceAttach:
  1145                           	opt stack 19
  1146                           
  1147                           ;usb_device.c: 1356: {
  1148                           ;usb_device.c: 1357: if(1 == 1)
  1149                           
  1150                           ; BSR set to: 0
  1151                           ;incstack = 0
  1152  0020B8  0100               	movlb	0	; () banked
  1153  0020BA  5178               	movf	_USBDeviceState& (0+255),w,b	;volatile
  1154  0020BC  A4D8               	btfss	status,2,c
  1155  0020BE  D016               	goto	l406
  1156                           
  1157                           ; BSR set to: 0
  1158                           ;usb_device.c: 1358: {
  1159                           ;usb_device.c: 1360: UCON = 0;
  1160  0020C0  0E00               	movlw	0
  1161  0020C2  6E6D               	movwf	3949,c	;volatile
  1162                           
  1163                           ;usb_device.c: 1363: UIE = 0;
  1164  0020C4  0E00               	movlw	0
  1165  0020C6  6E69               	movwf	3945,c	;volatile
  1166                           
  1167                           ;usb_device.c: 1367: { UCFG = 0x10 | 0x00 | 0x04 | 0x02; UEIE = 0x9F; UIE = 0x39 | 0x40 
      +                          | 0x02; };
  1168  0020C8  0E16               	movlw	22
  1169  0020CA  6E6F               	movwf	3951,c	;volatile
  1170  0020CC  0E9F               	movlw	159
  1171  0020CE  6E6B               	movwf	3947,c	;volatile
  1172  0020D0  0E7B               	movlw	123
  1173  0020D2  6E69               	movwf	3945,c	;volatile
  1174                           
  1175                           ; BSR set to: 0
  1176                           ;usb_device.c: 1369: {RCONbits.IPEN = 1;IPR2bits.USBIP = 1;PIE2bits.USBIE = 1;INTCONbits
      +                          .GIEH = 1;};
  1177  0020D4  8ED0               	bsf	4048,7,c	;volatile
  1178                           
  1179                           ; BSR set to: 0
  1180  0020D6  8AA2               	bsf	4002,5,c	;volatile
  1181                           
  1182                           ; BSR set to: 0
  1183  0020D8  8AA0               	bsf	4000,5,c	;volatile
  1184                           
  1185                           ; BSR set to: 0
  1186  0020DA  8EF2               	bsf	intcon,7,c	;volatile
  1187                           
  1188                           ;usb_device.c: 1372: while(!UCONbits.USBEN){UCONbits.USBEN = 1;}
  1189  0020DC  D001               	goto	l403
  1190  0020DE                     l404:
  1191  0020DE  866D               	bsf	3949,3,c	;volatile
  1192  0020E0                     l403:
  1193  0020E0  A66D               	btfss	3949,3,c	;volatile
  1194  0020E2  D7FD               	goto	l404
  1195                           
  1196                           ;usb_device.c: 1375: USBDeviceState = ATTACHED_STATE;
  1197  0020E4  0E01               	movlw	1
  1198  0020E6  0100               	movlb	0	; () banked
  1199  0020E8  6F78               	movwf	_USBDeviceState& (0+255),b	;volatile
  1200                           
  1201                           ; BSR set to: 0
  1202  0020EA  D000               	goto	l406
  1203  0020EC                     l406:
  1204                           
  1205                           ; BSR set to: 0
  1206  0020EC  0012               	return		;funcret
  1207  0020EE                     __end_of_USBDeviceAttach:
  1208                           	opt stack 0
  1209                           tblptru	equ	0xFF8
  1210                           prodh	equ	0xFF4
  1211                           prodl	equ	0xFF3
  1212                           intcon	equ	0xFF2
  1213                           postinc0	equ	0xFEE
  1214                           wreg	equ	0xFE8
  1215                           indf2	equ	0xFDF
  1216                           postinc2	equ	0xFDE
  1217                           postdec2	equ	0xFDD
  1218                           fsr2h	equ	0xFDA
  1219                           fsr2l	equ	0xFD9
  1220                           status	equ	0xFD8
  1221                           
  1222 ;; *************** function _SYSTEM_Initialize *****************
  1223 ;; Defined at:
  1224 ;;		line 75 in file "../src/system.c"
  1225 ;; Parameters:    Size  Location     Type
  1226 ;;  state           1    wreg     enum E4776
  1227 ;; Auto vars:     Size  Location     Type
  1228 ;;  state           1   19[BANK0 ] enum E4776
  1229 ;; Return value:  Size  Location     Type
  1230 ;;		None               void
  1231 ;; Registers used:
  1232 ;;		wreg, status,2, status,0, cstack
  1233 ;; Tracked objects:
  1234 ;;		On entry : 0/0
  1235 ;;		On exit  : 0/0
  1236 ;;		Unchanged: 0/0
  1237 ;; Data sizes:     COMRAM   BANK0   BANK1   BANK2   BANK3   BANK4   BANK5   BANK6   BANK7
  1238 ;;      Params:         0       0       0       0       0       0       0       0       0
  1239 ;;      Locals:         0       1       0       0       0       0       0       0       0
  1240 ;;      Temps:          0       0       0       0       0       0       0       0       0
  1241 ;;      Totals:         0       1       0       0       0       0       0       0       0
  1242 ;;Total ram usage:        1 bytes
  1243 ;; Hardware stack levels used:    1
  1244 ;; Hardware stack levels required when called:   13
  1245 ;; This function calls:
  1246 ;;		_initADC
  1247 ;; This function is called by:
  1248 ;;		_main
  1249 ;; This function uses a non-reentrant model
  1250 ;;
  1251                           
  1252                           	psect	text3
  1253  00215A                     __ptext3:
  1254                           	opt stack 0
  1255  00215A                     _SYSTEM_Initialize:
  1256                           	opt stack 17
  1257                           
  1258                           ; BSR set to: 0
  1259                           ;incstack = 0
  1260                           ;SYSTEM_Initialize@state stored from wreg
  1261  00215A  0100               	movlb	0	; () banked
  1262  00215C  6F93               	movwf	SYSTEM_Initialize@state& (0+255),b
  1263                           
  1264                           ; BSR set to: 0
  1265                           ;system.c: 77: switch(state)
  1266  00215E  D00C               	goto	l3434
  1267  002160                     l3418:
  1268                           
  1269                           ; BSR set to: 0
  1270                           ;system.c: 80: ;
  1271                           ;system.c: 81: ADCON1 |= 0x0F;
  1272  002160  0E0F               	movlw	15
  1273  002162  12C1               	iorwf	4033,f,c	;volatile
  1274                           
  1275                           ; BSR set to: 0
  1276                           ;system.c: 82: LATB &= 0x00; TRISB = 0x00;;
  1277  002164  0E00               	movlw	0
  1278  002166  6E8A               	movwf	3978,c	;volatile
  1279                           
  1280                           ; BSR set to: 0
  1281  002168  0E00               	movlw	0
  1282  00216A  6E93               	movwf	3987,c	;volatile
  1283                           
  1284                           ; BSR set to: 0
  1285                           ;system.c: 83: TRISBbits.TRISB4=1;TRISBbits.TRISB5=1;;
  1286  00216C  8893               	bsf	3987,4,c	;volatile
  1287                           
  1288                           ; BSR set to: 0
  1289  00216E  8A93               	bsf	3987,5,c	;volatile
  1290                           
  1291                           ; BSR set to: 0
  1292                           ;system.c: 84: TRISAbits.TRISA0 = 1;;
  1293  002170  8092               	bsf	3986,0,c	;volatile
  1294                           
  1295                           ; BSR set to: 0
  1296                           ;system.c: 85: initADC();
  1297  002172  EC31  F011         	call	_initADC	;wreg free
  1298                           
  1299                           ;system.c: 103: }
  1300                           
  1301                           ;system.c: 102: break;
  1302                           
  1303                           ;system.c: 91: case SYSTEM_STATE_USB_RESUME:
  1304                           
  1305                           ;system.c: 89: break;
  1306                           
  1307                           ;system.c: 88: case SYSTEM_STATE_USB_SUSPEND:
  1308                           
  1309                           ;system.c: 86: break;
  1310  002176  D00A               	goto	l194
  1311  002178                     l3434:
  1312  002178  0100               	movlb	0	; () banked
  1313  00217A  5193               	movf	SYSTEM_Initialize@state& (0+255),w,b
  1314                           
  1315                           ; Switch size 1, requested type "space"
  1316                           ; Number of cases is 3, Range of values is 0 to 2
  1317                           ; switch strategies available:
  1318                           ; Name         Instructions Cycles
  1319                           ; simple_byte           10     6 (average)
  1320                           ;	Chosen strategy is simple_byte
  1321  00217C  0A00               	xorlw	0	; case 0
  1322  00217E  B4D8               	btfsc	status,2,c
  1323  002180  D7EF               	goto	l3418
  1324  002182  0A01               	xorlw	1	; case 1
  1325  002184  B4D8               	btfsc	status,2,c
  1326  002186  D002               	goto	l194
  1327  002188  0A03               	xorlw	3	; case 2
  1328  00218A  D000               	goto	l194
  1329  00218C                     l194:
  1330  00218C  0012               	return		;funcret
  1331  00218E                     __end_of_SYSTEM_Initialize:
  1332                           	opt stack 0
  1333                           tblptru	equ	0xFF8
  1334                           prodh	equ	0xFF4
  1335                           prodl	equ	0xFF3
  1336                           intcon	equ	0xFF2
  1337                           postinc0	equ	0xFEE
  1338                           wreg	equ	0xFE8
  1339                           indf2	equ	0xFDF
  1340                           postinc2	equ	0xFDE
  1341                           postdec2	equ	0xFDD
  1342                           fsr2h	equ	0xFDA
  1343                           fsr2l	equ	0xFD9
  1344                           status	equ	0xFD8
  1345                           
  1346 ;; *************** function _initADC *****************
  1347 ;; Defined at:
  1348 ;;		line 47 in file "../config_18F2550.c"
  1349 ;; Parameters:    Size  Location     Type
  1350 ;;		None
  1351 ;; Auto vars:     Size  Location     Type
  1352 ;;		None
  1353 ;; Return value:  Size  Location     Type
  1354 ;;		None               void
  1355 ;; Registers used:
  1356 ;;		wreg, status,2, status,0, cstack
  1357 ;; Tracked objects:
  1358 ;;		On entry : 0/0
  1359 ;;		On exit  : 0/0
  1360 ;;		Unchanged: 0/0
  1361 ;; Data sizes:     COMRAM   BANK0   BANK1   BANK2   BANK3   BANK4   BANK5   BANK6   BANK7
  1362 ;;      Params:         0       0       0       0       0       0       0       0       0
  1363 ;;      Locals:         0       0       0       0       0       0       0       0       0
  1364 ;;      Temps:          0       0       0       0       0       0       0       0       0
  1365 ;;      Totals:         0       0       0       0       0       0       0       0       0
  1366 ;;Total ram usage:        0 bytes
  1367 ;; Hardware stack levels used:    1
  1368 ;; Hardware stack levels required when called:   12
  1369 ;; This function calls:
  1370 ;;		_OpenADC
  1371 ;; This function is called by:
  1372 ;;		_SYSTEM_Initialize
  1373 ;; This function uses a non-reentrant model
  1374 ;;
  1375                           
  1376                           	psect	text4
  1377  002262                     __ptext4:
  1378                           	opt stack 0
  1379  002262                     _initADC:
  1380                           	opt stack 17
  1381                           
  1382                           ;config_18F2550.c: 48: OpenADC(0b11101111 & 0b11111111 & 0b11110011,
  1383                           ;config_18F2550.c: 49: 0b10000111 & 0b01111111 & 0b11111100,
  1384                           ;config_18F2550.c: 50: 0b11111110);
  1385                           
  1386                           ;incstack = 0
  1387  002262  0E04               	movlw	4
  1388  002264  0100               	movlb	0	; () banked
  1389  002266  6F8E               	movwf	OpenADC@config2& (0+255),b
  1390  002268  0EFE               	movlw	254
  1391  00226A  0100               	movlb	0	; () banked
  1392  00226C  6F8F               	movwf	OpenADC@portconfig& (0+255),b
  1393  00226E  0EE3               	movlw	227
  1394  002270  EC77  F00F         	call	_OpenADC
  1395  002274  0012               	return		;funcret
  1396  002276                     __end_of_initADC:
  1397                           	opt stack 0
  1398                           tblptru	equ	0xFF8
  1399                           prodh	equ	0xFF4
  1400                           prodl	equ	0xFF3
  1401                           intcon	equ	0xFF2
  1402                           postinc0	equ	0xFEE
  1403                           wreg	equ	0xFE8
  1404                           indf2	equ	0xFDF
  1405                           postinc2	equ	0xFDE
  1406                           postdec2	equ	0xFDD
  1407                           fsr2h	equ	0xFDA
  1408                           fsr2l	equ	0xFD9
  1409                           status	equ	0xFD8
  1410                           
  1411 ;; *************** function _OpenADC *****************
  1412 ;; Defined at:
  1413 ;;		line 68 in file "C:\Program Files (x86)\Microchip\xc8\v1.34\sources\pic18\plib\ADC\adcopen.c"
  1414 ;; Parameters:    Size  Location     Type
  1415 ;;  config          1    wreg     unsigned char 
  1416 ;;  config2         1   14[BANK0 ] unsigned char 
  1417 ;;  portconfig      1   15[BANK0 ] unsigned char 
  1418 ;; Auto vars:     Size  Location     Type
  1419 ;;  config          1   18[BANK0 ] unsigned char 
  1420 ;; Return value:  Size  Location     Type
  1421 ;;		None               void
  1422 ;; Registers used:
  1423 ;;		wreg, status,2, status,0
  1424 ;; Tracked objects:
  1425 ;;		On entry : 0/0
  1426 ;;		On exit  : 0/0
  1427 ;;		Unchanged: 0/0
  1428 ;; Data sizes:     COMRAM   BANK0   BANK1   BANK2   BANK3   BANK4   BANK5   BANK6   BANK7
  1429 ;;      Params:         0       2       0       0       0       0       0       0       0
  1430 ;;      Locals:         0       1       0       0       0       0       0       0       0
  1431 ;;      Temps:          0       2       0       0       0       0       0       0       0
  1432 ;;      Totals:         0       5       0       0       0       0       0       0       0
  1433 ;;Total ram usage:        5 bytes
  1434 ;; Hardware stack levels used:    1
  1435 ;; Hardware stack levels required when called:   11
  1436 ;; This function calls:
  1437 ;;		Nothing
  1438 ;; This function is called by:
  1439 ;;		_initADC
  1440 ;; This function uses a non-reentrant model
  1441 ;;
  1442                           
  1443                           	psect	text5
  1444  001EEE                     __ptext5:
  1445                           	opt stack 0
  1446  001EEE                     _OpenADC:
  1447                           	opt stack 17
  1448                           
  1449                           ;incstack = 0
  1450                           ;OpenADC@config stored from wreg
  1451  001EEE  0100               	movlb	0	; () banked
  1452  001EF0  6F92               	movwf	OpenADC@config& (0+255),b
  1453                           
  1454                           ; BSR set to: 0
  1455  001EF2  0E00               	movlw	0
  1456  001EF4  6EC2               	movwf	4034,c	;volatile
  1457  001EF6  0E00               	movlw	0
  1458  001EF8  6EC0               	movwf	4032,c	;volatile
  1459                           
  1460                           ; BSR set to: 0
  1461  001EFA  0100               	movlb	0	; () banked
  1462  001EFC  90D8               	bcf	status,0,c
  1463  001EFE  318E               	rrcf	OpenADC@config2& (0+255),w,b
  1464  001F00  0B3C               	andlw	60
  1465  001F02  6EC2               	movwf	4034,c	;volatile
  1466                           
  1467                           ; BSR set to: 0
  1468  001F04  C08E  F090         	movff	OpenADC@config2,??_OpenADC
  1469  001F08  0100               	movlb	0	; () banked
  1470  001F0A  3B90               	swapf	??_OpenADC& (0+255),f,b
  1471  001F0C  0EF0               	movlw	240
  1472  001F0E  1790               	andwf	??_OpenADC& (0+255),f,b
  1473  001F10  0E30               	movlw	48
  1474  001F12  0100               	movlb	0	; () banked
  1475  001F14  1790               	andwf	??_OpenADC& (0+255),f,b
  1476  001F16  0100               	movlb	0	; () banked
  1477  001F18  518F               	movf	OpenADC@portconfig& (0+255),w,b
  1478  001F1A  0B0F               	andlw	15
  1479  001F1C  0100               	movlb	0	; () banked
  1480  001F1E  1190               	iorwf	??_OpenADC& (0+255),w,b
  1481  001F20  6EC1               	movwf	4033,c	;volatile
  1482                           
  1483                           ; BSR set to: 0
  1484  001F22  C092  F090         	movff	OpenADC@config,??_OpenADC
  1485  001F26  0100               	movlb	0	; () banked
  1486  001F28  90D8               	bcf	status,0,c
  1487  001F2A  3790               	rlcf	??_OpenADC& (0+255),f,b
  1488  001F2C  0100               	movlb	0	; () banked
  1489  001F2E  90D8               	bcf	status,0,c
  1490  001F30  3790               	rlcf	??_OpenADC& (0+255),f,b
  1491  001F32  0E38               	movlw	56
  1492  001F34  0100               	movlb	0	; () banked
  1493  001F36  1790               	andwf	??_OpenADC& (0+255),f,b
  1494  001F38  C092  F091         	movff	OpenADC@config,??_OpenADC+1
  1495  001F3C  0100               	movlb	0	; () banked
  1496  001F3E  3B91               	swapf	(??_OpenADC+1)& (0+255),f,b
  1497  001F40  0E0F               	movlw	15
  1498  001F42  1791               	andwf	(??_OpenADC+1)& (0+255),f,b
  1499  001F44  0E07               	movlw	7
  1500  001F46  0100               	movlb	0	; () banked
  1501  001F48  1791               	andwf	(??_OpenADC+1)& (0+255),f,b
  1502  001F4A  0100               	movlb	0	; () banked
  1503  001F4C  5192               	movf	OpenADC@config& (0+255),w,b
  1504  001F4E  0B80               	andlw	128
  1505  001F50  0100               	movlb	0	; () banked
  1506  001F52  1191               	iorwf	(??_OpenADC+1)& (0+255),w,b
  1507  001F54  0100               	movlb	0	; () banked
  1508  001F56  1190               	iorwf	??_OpenADC& (0+255),w,b
  1509  001F58  6EC0               	movwf	4032,c	;volatile
  1510                           
  1511                           ; BSR set to: 0
  1512  001F5A  0100               	movlb	0	; () banked
  1513  001F5C  AF8E               	btfss	OpenADC@config2& (0+255),7,b
  1514  001F5E  D003               	goto	l655
  1515                           
  1516                           ; BSR set to: 0
  1517  001F60  9C9E               	bcf	3998,6,c	;volatile
  1518  001F62  8C9D               	bsf	3997,6,c	;volatile
  1519  001F64  8CF2               	bsf	intcon,6,c	;volatile
  1520  001F66                     l655:
  1521                           
  1522                           ; BSR set to: 0
  1523  001F66  80C2               	bsf	4034,0,c	;volatile
  1524                           
  1525                           ; BSR set to: 0
  1526  001F68  0012               	return		;funcret
  1527  001F6A                     __end_of_OpenADC:
  1528                           	opt stack 0
  1529                           tblptru	equ	0xFF8
  1530                           prodh	equ	0xFF4
  1531                           prodl	equ	0xFF3
  1532                           intcon	equ	0xFF2
  1533                           postinc0	equ	0xFEE
  1534                           wreg	equ	0xFE8
  1535                           indf2	equ	0xFDF
  1536                           postinc2	equ	0xFDE
  1537                           postdec2	equ	0xFDD
  1538                           fsr2h	equ	0xFDA
  1539                           fsr2l	equ	0xFD9
  1540                           status	equ	0xFD8
  1541                           
  1542 ;; *************** function _APP_CustomHIDTasks *****************
  1543 ;; Defined at:
  1544 ;;		line 57 in file "../src/app_custom_hid.c"
  1545 ;; Parameters:    Size  Location     Type
  1546 ;;		None
  1547 ;; Auto vars:     Size  Location     Type
  1548 ;;		None
  1549 ;; Return value:  Size  Location     Type
  1550 ;;		None               void
  1551 ;; Registers used:
  1552 ;;		wreg, fsr2l, fsr2h, status,2, status,0, prodl, prodh, cstack
  1553 ;; Tracked objects:
  1554 ;;		On entry : 0/0
  1555 ;;		On exit  : 0/0
  1556 ;;		Unchanged: 0/0
  1557 ;; Data sizes:     COMRAM   BANK0   BANK1   BANK2   BANK3   BANK4   BANK5   BANK6   BANK7
  1558 ;;      Params:         0       0       0       0       0       0       0       0       0
  1559 ;;      Locals:         0       4       0       0       0       0       0       0       0
  1560 ;;      Temps:          0       1       0       0       0       0       0       0       0
  1561 ;;      Totals:         0       5       0       0       0       0       0       0       0
  1562 ;;Total ram usage:        5 bytes
  1563 ;; Hardware stack levels used:    1
  1564 ;; Hardware stack levels required when called:   12
  1565 ;; This function calls:
  1566 ;;		_BusyADC
  1567 ;;		_ConvertADC
  1568 ;;		_USBTransferOnePacket
  1569 ;;		_memset
  1570 ;; This function is called by:
  1571 ;;		_main
  1572 ;; This function uses a non-reentrant model
  1573 ;;
  1574                           
  1575                           	psect	text6
  1576  000B7E                     __ptext6:
  1577                           	opt stack 0
  1578  000B7E                     _APP_CustomHIDTasks:
  1579                           	opt stack 18
  1580                           
  1581                           ;app_custom_hid.c: 58: if(!(USBOutHandle==0?0:((volatile BDT_ENTRY*)USBOutHandle)->STAT.
      +                          UOWN)) {
  1582                           
  1583                           ; BSR set to: 0
  1584                           ;incstack = 0
  1585  000B7E  0100               	movlb	0	; () banked
  1586  000B80  5172               	movf	_USBOutHandle& (0+255),w,b
  1587  000B82  0100               	movlb	0	; () banked
  1588  000B84  1173               	iorwf	(_USBOutHandle+1)& (0+255),w,b
  1589  000B86  B4D8               	btfsc	status,2,c
  1590  000B88  D013               	goto	l3374
  1591                           
  1592                           ; BSR set to: 0
  1593  000B8A  C072  FFD9         	movff	_USBOutHandle,fsr2l
  1594  000B8E  C073  FFDA         	movff	_USBOutHandle+1,fsr2h
  1595  000B92  0100               	movlb	0	; () banked
  1596  000B94  AEDF               	btfss	indf2,7,c
  1597  000B96  D004               	goto	u2570
  1598  000B98  0100               	movlb	0	; () banked
  1599  000B9A  6B96               	clrf	??_APP_CustomHIDTasks& (0+255),b
  1600  000B9C  2B96               	incf	??_APP_CustomHIDTasks& (0+255),f,b
  1601  000B9E  D002               	goto	u2578
  1602  000BA0                     u2570:
  1603  000BA0  0100               	movlb	0	; () banked
  1604  000BA2  6B96               	clrf	??_APP_CustomHIDTasks& (0+255),b
  1605  000BA4                     u2578:
  1606  000BA4  0100               	movlb	0	; () banked
  1607  000BA6  5196               	movf	??_APP_CustomHIDTasks& (0+255),w,b
  1608  000BA8  0100               	movlb	0	; () banked
  1609  000BAA  6F97               	movwf	_APP_CustomHIDTasks$326& (0+255),b
  1610  000BAC  6B98               	clrf	(_APP_CustomHIDTasks$326+1)& (0+255),b
  1611  000BAE  D006               	goto	l3376
  1612  000BB0                     l3374:
  1613                           
  1614                           ; BSR set to: 0
  1615  000BB0  0E00               	movlw	0
  1616  000BB2  0100               	movlb	0	; () banked
  1617  000BB4  6F98               	movwf	(_APP_CustomHIDTasks$326+1)& (0+255),b
  1618  000BB6  0E00               	movlw	0
  1619  000BB8  6F97               	movwf	_APP_CustomHIDTasks$326& (0+255),b
  1620  000BBA  D000               	goto	l3376
  1621  000BBC                     l3376:
  1622                           
  1623                           ; BSR set to: 0
  1624  000BBC  0100               	movlb	0	; () banked
  1625  000BBE  5197               	movf	_APP_CustomHIDTasks$326& (0+255),w,b
  1626  000BC0  0100               	movlb	0	; () banked
  1627  000BC2  1198               	iorwf	(_APP_CustomHIDTasks$326+1)& (0+255),w,b
  1628  000BC4  A4D8               	btfss	status,2,c
  1629  000BC6  D05E               	goto	l3402
  1630                           
  1631                           ; BSR set to: 0
  1632                           ;app_custom_hid.c: 60: memset( ToSendDataBuffer, ' ', sizeof(ToSendDataBuffer) );
  1633  000BC8  0E40               	movlw	64
  1634  000BCA  0100               	movlb	0	; () banked
  1635  000BCC  6F8E               	movwf	memset@p1& (0+255),b
  1636  000BCE  0E05               	movlw	5
  1637  000BD0  0100               	movlb	0	; () banked
  1638  000BD2  6F8F               	movwf	(memset@p1+1)& (0+255),b
  1639  000BD4  0E00               	movlw	0
  1640  000BD6  0100               	movlb	0	; () banked
  1641  000BD8  6F91               	movwf	(memset@c+1)& (0+255),b
  1642  000BDA  0E20               	movlw	32
  1643  000BDC  6F90               	movwf	memset@c& (0+255),b
  1644  000BDE  0E00               	movlw	0
  1645  000BE0  0100               	movlb	0	; () banked
  1646  000BE2  6F93               	movwf	(memset@n+1)& (0+255),b
  1647  000BE4  0E40               	movlw	64
  1648  000BE6  6F92               	movwf	memset@n& (0+255),b
  1649  000BE8  EC77  F010         	call	_memset	;wreg free
  1650                           
  1651                           ;app_custom_hid.c: 63: switch(ReceivedDataBuffer[0]) {
  1652  000BEC  D020               	goto	l3392
  1653  000BEE                     l57:
  1654                           
  1655                           ; BSR set to: 5
  1656                           ;app_custom_hid.c: 65: LATBbits.LATB2 = !LATBbits.LATB2;;
  1657  000BEE  748A               	btg	3978,2,c	;volatile
  1658                           
  1659                           ;app_custom_hid.c: 66: break;
  1660  000BF0  D02A               	goto	l3394
  1661  000BF2                     l3380:
  1662                           
  1663                           ; BSR set to: 5
  1664                           ;app_custom_hid.c: 68: ToSendDataBuffer[0] = COMMAND_GET_BUTTON_STATUS;
  1665  000BF2  0E81               	movlw	129
  1666  000BF4  0105               	movlb	5	; () banked
  1667  000BF6  6F40               	movwf	64,b
  1668                           
  1669                           ;app_custom_hid.c: 69: ToSendDataBuffer[1] = !PORTBbits.RB4;
  1670  000BF8  B881               	btfsc	3969,4,c	;volatile
  1671  000BFA  D002               	goto	u2590
  1672  000BFC  0E01               	movlw	1
  1673  000BFE  D001               	goto	u2600
  1674  000C00                     u2590:
  1675  000C00  0E00               	movlw	0
  1676  000C02                     u2600:
  1677  000C02  0105               	movlb	5	; () banked
  1678  000C04  6F41               	movwf	65,b
  1679  000C06  D00F               	goto	l3388
  1680  000C08                     l3382:
  1681                           
  1682                           ;app_custom_hid.c: 73: ConvertADC();
  1683  000C08  EC42  F011         	call	_ConvertADC	;wreg free
  1684                           
  1685                           ;app_custom_hid.c: 74: ToSendDataBuffer[0] = COMMAND_READ_POTENTIOMETER;
  1686  000C0C  0E37               	movlw	55
  1687  000C0E  0105               	movlb	5	; () banked
  1688  000C10  6F40               	movwf	64,b
  1689                           
  1690                           ; BSR set to: 5
  1691                           
  1692                           ;app_custom_hid.c: 75: while (BusyADC()) {
  1693  000C12  D000               	goto	l3386
  1694  000C14                     l3386:
  1695  000C14  EC3B  F011         	call	_BusyADC	;wreg free
  1696  000C18  0900               	iorlw	0
  1697  000C1A  A4D8               	btfss	status,2,c
  1698  000C1C  D7FB               	goto	l3386
  1699                           
  1700                           ;app_custom_hid.c: 77: }
  1701                           ;app_custom_hid.c: 78: ToSendDataBuffer[1] = ADRESL;
  1702  000C1E  CFC3 F541          	movff	4035,1345	;volatile
  1703                           
  1704                           ;app_custom_hid.c: 79: ToSendDataBuffer[2] = ADRESH;
  1705  000C22  CFC4 F542          	movff	4036,1346	;volatile
  1706  000C26                     l3388:
  1707                           
  1708                           ;app_custom_hid.c: 80: _doTransmit = 1;
  1709  000C26  0E01               	movlw	1
  1710  000C28  0100               	movlb	0	; () banked
  1711  000C2A  6F79               	movwf	__doTransmit& (0+255),b
  1712                           
  1713                           ; BSR set to: 0
  1714                           ;app_custom_hid.c: 82: }
  1715                           
  1716                           ;app_custom_hid.c: 81: break;
  1717  000C2C  D00C               	goto	l3394
  1718  000C2E                     l3392:
  1719  000C2E  0105               	movlb	5	; () banked
  1720  000C30  5100               	movf	0,w,b
  1721                           
  1722                           ; Switch size 1, requested type "space"
  1723                           ; Number of cases is 3, Range of values is 55 to 129
  1724                           ; switch strategies available:
  1725                           ; Name         Instructions Cycles
  1726                           ; simple_byte           10     6 (average)
  1727                           ;	Chosen strategy is simple_byte
  1728  000C32  0A37               	xorlw	55	; case 55
  1729  000C34  B4D8               	btfsc	status,2,c
  1730  000C36  D7E8               	goto	l3382
  1731  000C38  0AB7               	xorlw	183	; case 128
  1732  000C3A  B4D8               	btfsc	status,2,c
  1733  000C3C  D7D8               	goto	l57
  1734  000C3E  0A01               	xorlw	1	; case 129
  1735  000C40  B4D8               	btfsc	status,2,c
  1736  000C42  D7D7               	goto	l3380
  1737  000C44  D000               	goto	l3394
  1738  000C46                     l3394:
  1739                           
  1740                           ;app_custom_hid.c: 84: if(!_doTransmit) {
  1741  000C46  0100               	movlb	0	; () banked
  1742  000C48  5179               	movf	__doTransmit& (0+255),w,b
  1743  000C4A  0100               	movlb	0	; () banked
  1744  000C4C  A4D8               	btfss	status,2,c
  1745  000C4E  D006               	goto	l3400
  1746                           
  1747                           ; BSR set to: 0
  1748                           ;app_custom_hid.c: 86: ToSendDataBuffer[0] = ReceivedDataBuffer[0];
  1749  000C50  C500 F540          	movff	1280,1344
  1750                           
  1751                           ; BSR set to: 0
  1752                           ;app_custom_hid.c: 87: _doTransmit = 1;
  1753  000C54  0E01               	movlw	1
  1754  000C56  0100               	movlb	0	; () banked
  1755  000C58  6F79               	movwf	__doTransmit& (0+255),b
  1756  000C5A  D000               	goto	l3400
  1757  000C5C                     l3400:
  1758                           
  1759                           ; BSR set to: 0
  1760                           ;app_custom_hid.c: 88: }
  1761                           ;app_custom_hid.c: 91: USBOutHandle = USBTransferOnePacket(1,0,(uint8_t*)&ReceivedDataBu
      +                          ffer,64);
  1762  000C5C  0E00               	movlw	0
  1763  000C5E  0100               	movlb	0	; () banked
  1764  000C60  6F8E               	movwf	USBTransferOnePacket@dir& (0+255),b
  1765  000C62  0E00               	movlw	0
  1766  000C64  0100               	movlb	0	; () banked
  1767  000C66  6F8F               	movwf	USBTransferOnePacket@data& (0+255),b
  1768  000C68  0E05               	movlw	5
  1769  000C6A  0100               	movlb	0	; () banked
  1770  000C6C  6F90               	movwf	(USBTransferOnePacket@data+1)& (0+255),b
  1771  000C6E  0E40               	movlw	64
  1772  000C70  0100               	movlb	0	; () banked
  1773  000C72  6F91               	movwf	USBTransferOnePacket@len& (0+255),b
  1774  000C74  0E01               	movlw	1
  1775  000C76  ECFF  F00B         	call	_USBTransferOnePacket
  1776  000C7A  C08E  F072         	movff	?_USBTransferOnePacket,_USBOutHandle
  1777  000C7E  C08F  F073         	movff	?_USBTransferOnePacket+1,_USBOutHandle+1
  1778  000C82  D000               	goto	l3402
  1779  000C84                     l3402:
  1780                           
  1781                           ;app_custom_hid.c: 92: }
  1782                           ;app_custom_hid.c: 93: if(!(USBInHandle==0?0:((volatile BDT_ENTRY*)USBInHandle)->STAT.UO
      +                          WN) && _doTransmit){
  1783  000C84  0100               	movlb	0	; () banked
  1784  000C86  5170               	movf	_USBInHandle& (0+255),w,b
  1785  000C88  0100               	movlb	0	; () banked
  1786  000C8A  1171               	iorwf	(_USBInHandle+1)& (0+255),w,b
  1787  000C8C  B4D8               	btfsc	status,2,c
  1788  000C8E  D013               	goto	l3406
  1789                           
  1790                           ; BSR set to: 0
  1791  000C90  C070  FFD9         	movff	_USBInHandle,fsr2l
  1792  000C94  C071  FFDA         	movff	_USBInHandle+1,fsr2h
  1793  000C98  0100               	movlb	0	; () banked
  1794  000C9A  AEDF               	btfss	indf2,7,c
  1795  000C9C  D004               	goto	u2640
  1796  000C9E  0100               	movlb	0	; () banked
  1797  000CA0  6B96               	clrf	??_APP_CustomHIDTasks& (0+255),b
  1798  000CA2  2B96               	incf	??_APP_CustomHIDTasks& (0+255),f,b
  1799  000CA4  D002               	goto	u2648
  1800  000CA6                     u2640:
  1801  000CA6  0100               	movlb	0	; () banked
  1802  000CA8  6B96               	clrf	??_APP_CustomHIDTasks& (0+255),b
  1803  000CAA                     u2648:
  1804  000CAA  0100               	movlb	0	; () banked
  1805  000CAC  5196               	movf	??_APP_CustomHIDTasks& (0+255),w,b
  1806  000CAE  0100               	movlb	0	; () banked
  1807  000CB0  6F99               	movwf	_APP_CustomHIDTasks$376& (0+255),b
  1808  000CB2  6B9A               	clrf	(_APP_CustomHIDTasks$376+1)& (0+255),b
  1809  000CB4  D006               	goto	l3408
  1810  000CB6                     l3406:
  1811                           
  1812                           ; BSR set to: 0
  1813  000CB6  0E00               	movlw	0
  1814  000CB8  0100               	movlb	0	; () banked
  1815  000CBA  6F9A               	movwf	(_APP_CustomHIDTasks$376+1)& (0+255),b
  1816  000CBC  0E00               	movlw	0
  1817  000CBE  6F99               	movwf	_APP_CustomHIDTasks$376& (0+255),b
  1818  000CC0  D000               	goto	l3408
  1819  000CC2                     l3408:
  1820                           
  1821                           ; BSR set to: 0
  1822  000CC2  0100               	movlb	0	; () banked
  1823  000CC4  5199               	movf	_APP_CustomHIDTasks$376& (0+255),w,b
  1824  000CC6  0100               	movlb	0	; () banked
  1825  000CC8  119A               	iorwf	(_APP_CustomHIDTasks$376+1)& (0+255),w,b
  1826  000CCA  A4D8               	btfss	status,2,c
  1827  000CCC  D01C               	goto	l70
  1828                           
  1829                           ; BSR set to: 0
  1830  000CCE  0100               	movlb	0	; () banked
  1831  000CD0  5179               	movf	__doTransmit& (0+255),w,b
  1832  000CD2  0100               	movlb	0	; () banked
  1833  000CD4  B4D8               	btfsc	status,2,c
  1834  000CD6  D017               	goto	l70
  1835                           
  1836                           ; BSR set to: 0
  1837                           ;app_custom_hid.c: 95: USBInHandle = USBTransferOnePacket(1,1,(uint8_t *)ToSendDataBuffe
      +                          r,64);
  1838  000CD8  0E01               	movlw	1
  1839  000CDA  0100               	movlb	0	; () banked
  1840  000CDC  6F8E               	movwf	USBTransferOnePacket@dir& (0+255),b
  1841  000CDE  0E40               	movlw	64
  1842  000CE0  0100               	movlb	0	; () banked
  1843  000CE2  6F8F               	movwf	USBTransferOnePacket@data& (0+255),b
  1844  000CE4  0E05               	movlw	5
  1845  000CE6  0100               	movlb	0	; () banked
  1846  000CE8  6F90               	movwf	(USBTransferOnePacket@data+1)& (0+255),b
  1847  000CEA  0E40               	movlw	64
  1848  000CEC  0100               	movlb	0	; () banked
  1849  000CEE  6F91               	movwf	USBTransferOnePacket@len& (0+255),b
  1850  000CF0  0E01               	movlw	1
  1851  000CF2  ECFF  F00B         	call	_USBTransferOnePacket
  1852  000CF6  C08E  F070         	movff	?_USBTransferOnePacket,_USBInHandle
  1853  000CFA  C08F  F071         	movff	?_USBTransferOnePacket+1,_USBInHandle+1
  1854                           
  1855                           ;app_custom_hid.c: 96: _doTransmit = 0;
  1856  000CFE  0E00               	movlw	0
  1857  000D00  0100               	movlb	0	; () banked
  1858  000D02  6F79               	movwf	__doTransmit& (0+255),b
  1859  000D04  D000               	goto	l70
  1860  000D06                     l70:
  1861                           
  1862                           ; BSR set to: 0
  1863  000D06  0012               	return		;funcret
  1864  000D08                     __end_of_APP_CustomHIDTasks:
  1865                           	opt stack 0
  1866                           tblptru	equ	0xFF8
  1867                           prodh	equ	0xFF4
  1868                           prodl	equ	0xFF3
  1869                           intcon	equ	0xFF2
  1870                           postinc0	equ	0xFEE
  1871                           wreg	equ	0xFE8
  1872                           indf2	equ	0xFDF
  1873                           postinc2	equ	0xFDE
  1874                           postdec2	equ	0xFDD
  1875                           fsr2h	equ	0xFDA
  1876                           fsr2l	equ	0xFD9
  1877                           status	equ	0xFD8
  1878                           
  1879 ;; *************** function _memset *****************
  1880 ;; Defined at:
  1881 ;;		line 8 in file "C:\Program Files (x86)\Microchip\xc8\v1.34\sources\common\memset.c"
  1882 ;; Parameters:    Size  Location     Type
  1883 ;;  p1              2   14[BANK0 ] PTR void 
  1884 ;;		 -> USBAlternateInterface(1), BDT(32), UEP1(1), ToSendDataBuffer(64), 
  1885 ;;  c               2   16[BANK0 ] int 
  1886 ;;  n               2   18[BANK0 ] unsigned int 
  1887 ;; Auto vars:     Size  Location     Type
  1888 ;;  p               2   20[BANK0 ] PTR unsigned char 
  1889 ;;		 -> USBAlternateInterface(1), BDT(32), UEP1(1), ToSendDataBuffer(64), 
  1890 ;; Return value:  Size  Location     Type
  1891 ;;                  2   14[BANK0 ] PTR void 
  1892 ;; Registers used:
  1893 ;;		wreg, fsr2l, fsr2h, status,2, status,0
  1894 ;; Tracked objects:
  1895 ;;		On entry : 0/0
  1896 ;;		On exit  : 0/0
  1897 ;;		Unchanged: 0/0
  1898 ;; Data sizes:     COMRAM   BANK0   BANK1   BANK2   BANK3   BANK4   BANK5   BANK6   BANK7
  1899 ;;      Params:         0       6       0       0       0       0       0       0       0
  1900 ;;      Locals:         0       2       0       0       0       0       0       0       0
  1901 ;;      Temps:          0       0       0       0       0       0       0       0       0
  1902 ;;      Totals:         0       8       0       0       0       0       0       0       0
  1903 ;;Total ram usage:        8 bytes
  1904 ;; Hardware stack levels used:    1
  1905 ;; Hardware stack levels required when called:   11
  1906 ;; This function calls:
  1907 ;;		Nothing
  1908 ;; This function is called by:
  1909 ;;		_APP_CustomHIDTasks
  1910 ;;		_USBDeviceInit
  1911 ;; This function uses a non-reentrant model
  1912 ;;
  1913                           
  1914                           	psect	text7
  1915  0020EE                     __ptext7:
  1916                           	opt stack 0
  1917  0020EE                     _memset:
  1918                           	opt stack 18
  1919                           
  1920                           ; BSR set to: 0
  1921                           ;incstack = 0
  1922  0020EE  C08E  F094         	movff	memset@p1,memset@p
  1923  0020F2  C08F  F095         	movff	memset@p1+1,memset@p+1
  1924  0020F6  D00A               	goto	l3224
  1925  0020F8                     l3220:
  1926  0020F8  C094  FFD9         	movff	memset@p,fsr2l
  1927  0020FC  C095  FFDA         	movff	memset@p+1,fsr2h
  1928  002100  C090  FFDF         	movff	memset@c,indf2
  1929  002104  0100               	movlb	0	; () banked
  1930  002106  4B94               	infsnz	memset@p& (0+255),f,b
  1931  002108  2B95               	incf	(memset@p+1)& (0+255),f,b
  1932  00210A  D000               	goto	l3224
  1933  00210C                     l3224:
  1934  00210C  0100               	movlb	0	; () banked
  1935  00210E  0792               	decf	memset@n& (0+255),f,b
  1936  002110  A0D8               	btfss	status,0,c
  1937  002112  0793               	decf	(memset@n+1)& (0+255),f,b
  1938  002114  0100               	movlb	0	; () banked
  1939  002116  2992               	incf	memset@n& (0+255),w,b
  1940  002118  E1EF               	bnz	l3220
  1941  00211A  0100               	movlb	0	; () banked
  1942  00211C  2993               	incf	(memset@n+1)& (0+255),w,b
  1943  00211E  A4D8               	btfss	status,2,c
  1944  002120  D7EB               	goto	l3220
  1945                           
  1946                           ; BSR set to: 0
  1947                           
  1948                           ; BSR set to: 0
  1949                           ;	Return value of _memset is never used
  1950  002122  0012               	return		;funcret
  1951  002124                     __end_of_memset:
  1952                           	opt stack 0
  1953                           tblptru	equ	0xFF8
  1954                           prodh	equ	0xFF4
  1955                           prodl	equ	0xFF3
  1956                           intcon	equ	0xFF2
  1957                           postinc0	equ	0xFEE
  1958                           wreg	equ	0xFE8
  1959                           indf2	equ	0xFDF
  1960                           postinc2	equ	0xFDE
  1961                           postdec2	equ	0xFDD
  1962                           fsr2h	equ	0xFDA
  1963                           fsr2l	equ	0xFD9
  1964                           status	equ	0xFD8
  1965                           
  1966 ;; *************** function _USBTransferOnePacket *****************
  1967 ;; Defined at:
  1968 ;;		line 995 in file "../src/usb/src/usb_device.c"
  1969 ;; Parameters:    Size  Location     Type
  1970 ;;  ep              1    wreg     unsigned char 
  1971 ;;  dir             1   14[BANK0 ] unsigned char 
  1972 ;;  data            2   15[BANK0 ] PTR unsigned char 
  1973 ;;		 -> ToSendDataBuffer(64), ReceivedDataBuffer(64), 
  1974 ;;  len             1   17[BANK0 ] unsigned char 
  1975 ;; Auto vars:     Size  Location     Type
  1976 ;;  ep              1   18[BANK0 ] unsigned char 
  1977 ;;  handle          2   19[BANK0 ] PTR volatile struct __BD
  1978 ;;		 -> BDT(32), NULL(0), 
  1979 ;; Return value:  Size  Location     Type
  1980 ;;                  2   14[BANK0 ] PTR void 
  1981 ;; Registers used:
  1982 ;;		wreg, fsr2l, fsr2h, status,2, status,0, prodl, prodh
  1983 ;; Tracked objects:
  1984 ;;		On entry : 0/0
  1985 ;;		On exit  : 0/0
  1986 ;;		Unchanged: 0/0
  1987 ;; Data sizes:     COMRAM   BANK0   BANK1   BANK2   BANK3   BANK4   BANK5   BANK6   BANK7
  1988 ;;      Params:         0       4       0       0       0       0       0       0       0
  1989 ;;      Locals:         0       3       0       0       0       0       0       0       0
  1990 ;;      Temps:          0       0       0       0       0       0       0       0       0
  1991 ;;      Totals:         0       7       0       0       0       0       0       0       0
  1992 ;;Total ram usage:        7 bytes
  1993 ;; Hardware stack levels used:    1
  1994 ;; Hardware stack levels required when called:   11
  1995 ;; This function calls:
  1996 ;;		Nothing
  1997 ;; This function is called by:
  1998 ;;		_APP_CustomHIDTasks
  1999 ;; This function uses a non-reentrant model
  2000 ;;
  2001                           
  2002                           	psect	text8
  2003  0017FE                     __ptext8:
  2004                           	opt stack 0
  2005  0017FE                     _USBTransferOnePacket:
  2006                           	opt stack 18
  2007                           
  2008                           ; BSR set to: 0
  2009                           ;incstack = 0
  2010                           ;USBTransferOnePacket@ep stored from wreg
  2011  0017FE  0100               	movlb	0	; () banked
  2012  001800  6F92               	movwf	USBTransferOnePacket@ep& (0+255),b
  2013                           
  2014                           ; BSR set to: 0
  2015                           ;usb_device.c: 997: volatile BDT_ENTRY* handle;
  2016                           ;usb_device.c: 1000: if(dir != 0)
  2017  001802  0100               	movlb	0	; () banked
  2018  001804  518E               	movf	USBTransferOnePacket@dir& (0+255),w,b
  2019  001806  0100               	movlb	0	; () banked
  2020  001808  B4D8               	btfsc	status,2,c
  2021  00180A  D008               	goto	l3192
  2022                           
  2023                           ; BSR set to: 0
  2024                           ;usb_device.c: 1001: {
  2025                           ;usb_device.c: 1003: handle = pBDTEntryIn[ep];
  2026  00180C  0100               	movlb	0	; () banked
  2027  00180E  5192               	movf	USBTransferOnePacket@ep& (0+255),w,b
  2028  001810  0D02               	mullw	2
  2029  001812  0E68               	movlw	low _pBDTEntryIn
  2030  001814  24F3               	addwf	prodl,w,c
  2031  001816  6ED9               	movwf	fsr2l,c
  2032  001818  0E00               	movlw	high _pBDTEntryIn
  2033  00181A  D007               	goto	L1
  2034  00181C                     l3192:
  2035                           
  2036                           ; BSR set to: 0
  2037                           ;usb_device.c: 1005: else
  2038                           ;usb_device.c: 1006: {
  2039                           ;usb_device.c: 1008: handle = pBDTEntryOut[ep];
  2040  00181C  0100               	movlb	0	; () banked
  2041  00181E  5192               	movf	USBTransferOnePacket@ep& (0+255),w,b
  2042  001820  0D02               	mullw	2
  2043  001822  0E6C               	movlw	low _pBDTEntryOut
  2044  001824  24F3               	addwf	prodl,w,c
  2045  001826  6ED9               	movwf	fsr2l,c
  2046  001828  0E00               	movlw	high _pBDTEntryOut
  2047  00182A                     L1:
  2048  00182A  20F4               	addwfc	prodh,w,c
  2049  00182C  6EDA               	movwf	fsr2h,c
  2050  00182E  CFDE F093          	movff	postinc2,USBTransferOnePacket@handle
  2051  001832  CFDD F094          	movff	postdec2,USBTransferOnePacket@handle+1
  2052  001836  D000               	goto	l3194
  2053  001838                     l3194:
  2054                           
  2055                           ; BSR set to: 0
  2056                           ;usb_device.c: 1009: }
  2057                           ;usb_device.c: 1013: if(handle == 0)
  2058  001838  0100               	movlb	0	; () banked
  2059  00183A  5193               	movf	USBTransferOnePacket@handle& (0+255),w,b
  2060  00183C  0100               	movlb	0	; () banked
  2061  00183E  1194               	iorwf	(USBTransferOnePacket@handle+1)& (0+255),w,b
  2062  001840  A4D8               	btfss	status,2,c
  2063  001842  D007               	goto	l3200
  2064                           
  2065                           ; BSR set to: 0
  2066                           ;usb_device.c: 1014: {
  2067                           ;usb_device.c: 1015: return 0;
  2068  001844  0E00               	movlw	0
  2069  001846  0100               	movlb	0	; () banked
  2070  001848  6F8E               	movwf	?_USBTransferOnePacket& (0+255),b
  2071  00184A  0E00               	movlw	0
  2072  00184C  0100               	movlb	0	; () banked
  2073  00184E  6F8F               	movwf	(?_USBTransferOnePacket+1)& (0+255),b
  2074                           
  2075                           ; BSR set to: 0
  2076  001850  D044               	goto	l384
  2077  001852                     l3200:
  2078                           
  2079                           ; BSR set to: 0
  2080                           ;usb_device.c: 1016: }
  2081                           ;usb_device.c: 1029: handle->ADR = ((uint16_t)(data));
  2082  001852  0100               	movlb	0	; () banked
  2083  001854  EE20 F002          	lfsr	2,2
  2084  001858  5193               	movf	USBTransferOnePacket@handle& (0+255),w,b
  2085  00185A  26D9               	addwf	fsr2l,f,c
  2086  00185C  5194               	movf	(USBTransferOnePacket@handle+1)& (0+255),w,b
  2087  00185E  22DA               	addwfc	fsr2h,f,c
  2088  001860  C08F  FFDE         	movff	USBTransferOnePacket@data,postinc2
  2089  001864  C090  FFDD         	movff	USBTransferOnePacket@data+1,postdec2
  2090                           
  2091                           ;usb_device.c: 1030: handle->CNT = len;
  2092  001868  0100               	movlb	0	; () banked
  2093  00186A  EE20 F001          	lfsr	2,1
  2094  00186E  5193               	movf	USBTransferOnePacket@handle& (0+255),w,b
  2095  001870  26D9               	addwf	fsr2l,f,c
  2096  001872  5194               	movf	(USBTransferOnePacket@handle+1)& (0+255),w,b
  2097  001874  22DA               	addwfc	fsr2h,f,c
  2098  001876  C091  FFDF         	movff	USBTransferOnePacket@len,indf2
  2099                           
  2100                           ; BSR set to: 0
  2101                           ;usb_device.c: 1031: handle->STAT.Val &= 0x40;
  2102  00187A  C093  FFD9         	movff	USBTransferOnePacket@handle,fsr2l
  2103  00187E  C094  FFDA         	movff	USBTransferOnePacket@handle+1,fsr2h
  2104  001882  0E40               	movlw	64
  2105  001884  16DF               	andwf	indf2,f,c
  2106                           
  2107                           ; BSR set to: 0
  2108                           ;usb_device.c: 1032: handle->STAT.Val |= (0x08 & 0x08);
  2109  001886  C093  FFD9         	movff	USBTransferOnePacket@handle,fsr2l
  2110  00188A  C094  FFDA         	movff	USBTransferOnePacket@handle+1,fsr2h
  2111  00188E  0E00               	movlw	0
  2112  001890  86DB               	bsf	plusw2,3,c
  2113                           
  2114                           ; BSR set to: 0
  2115                           ;usb_device.c: 1033: handle->STAT.Val |= 0x80;
  2116  001892  C093  FFD9         	movff	USBTransferOnePacket@handle,fsr2l
  2117  001896  C094  FFDA         	movff	USBTransferOnePacket@handle+1,fsr2h
  2118  00189A  0E00               	movlw	0
  2119  00189C  8EDB               	bsf	plusw2,7,c
  2120                           
  2121                           ; BSR set to: 0
  2122                           ;usb_device.c: 1036: if(dir != 0)
  2123  00189E  0100               	movlb	0	; () banked
  2124  0018A0  518E               	movf	USBTransferOnePacket@dir& (0+255),w,b
  2125  0018A2  0100               	movlb	0	; () banked
  2126  0018A4  B4D8               	btfsc	status,2,c
  2127  0018A6  D008               	goto	l3212
  2128                           
  2129                           ; BSR set to: 0
  2130                           ;usb_device.c: 1037: {
  2131                           ;usb_device.c: 1039: {((uint8_t_VAL*)&pBDTEntryIn[ep])->Val ^= 0x0004;};
  2132  0018A8  0100               	movlb	0	; () banked
  2133  0018AA  5192               	movf	USBTransferOnePacket@ep& (0+255),w,b
  2134  0018AC  0D02               	mullw	2
  2135  0018AE  0E68               	movlw	low _pBDTEntryIn
  2136  0018B0  24F3               	addwf	prodl,w,c
  2137  0018B2  6ED9               	movwf	fsr2l,c
  2138  0018B4  0E00               	movlw	high _pBDTEntryIn
  2139  0018B6  D007               	goto	L2
  2140  0018B8                     l3212:
  2141                           
  2142                           ; BSR set to: 0
  2143                           ;usb_device.c: 1041: else
  2144                           ;usb_device.c: 1042: {
  2145                           ;usb_device.c: 1044: {((uint8_t_VAL*)&pBDTEntryOut[ep])->Val ^= 0x0004;};
  2146  0018B8  0100               	movlb	0	; () banked
  2147  0018BA  5192               	movf	USBTransferOnePacket@ep& (0+255),w,b
  2148  0018BC  0D02               	mullw	2
  2149  0018BE  0E6C               	movlw	low _pBDTEntryOut
  2150  0018C0  24F3               	addwf	prodl,w,c
  2151  0018C2  6ED9               	movwf	fsr2l,c
  2152  0018C4  0E00               	movlw	high _pBDTEntryOut
  2153  0018C6                     L2:
  2154  0018C6  20F4               	addwfc	prodh,w,c
  2155  0018C8  6EDA               	movwf	fsr2h,c
  2156  0018CA  0E04               	movlw	4
  2157  0018CC  1ADF               	xorwf	indf2,f,c
  2158  0018CE  D000               	goto	l3214
  2159  0018D0                     l3214:
  2160                           
  2161                           ; BSR set to: 0
  2162                           ;usb_device.c: 1045: }
  2163                           ;usb_device.c: 1046: return (void*)handle;
  2164  0018D0  C093  F08E         	movff	USBTransferOnePacket@handle,?_USBTransferOnePacket
  2165  0018D4  C094  F08F         	movff	USBTransferOnePacket@handle+1,?_USBTransferOnePacket+1
  2166  0018D8  D000               	goto	l384
  2167  0018DA                     l384:
  2168                           
  2169                           ; BSR set to: 0
  2170  0018DA  0012               	return		;funcret
  2171  0018DC                     __end_of_USBTransferOnePacket:
  2172                           	opt stack 0
  2173                           tblptru	equ	0xFF8
  2174                           prodh	equ	0xFF4
  2175                           prodl	equ	0xFF3
  2176                           intcon	equ	0xFF2
  2177                           postinc0	equ	0xFEE
  2178                           wreg	equ	0xFE8
  2179                           indf2	equ	0xFDF
  2180                           postinc2	equ	0xFDE
  2181                           postdec2	equ	0xFDD
  2182                           plusw2	equ	0xFDB
  2183                           fsr2h	equ	0xFDA
  2184                           fsr2l	equ	0xFD9
  2185                           status	equ	0xFD8
  2186                           
  2187 ;; *************** function _ConvertADC *****************
  2188 ;; Defined at:
  2189 ;;		line 22 in file "C:\Program Files (x86)\Microchip\xc8\v1.34\sources\pic18\plib\ADC\adcconv.c"
  2190 ;; Parameters:    Size  Location     Type
  2191 ;;		None
  2192 ;; Auto vars:     Size  Location     Type
  2193 ;;		None
  2194 ;; Return value:  Size  Location     Type
  2195 ;;		None               void
  2196 ;; Registers used:
  2197 ;;		None
  2198 ;; Tracked objects:
  2199 ;;		On entry : 0/0
  2200 ;;		On exit  : 0/0
  2201 ;;		Unchanged: 0/0
  2202 ;; Data sizes:     COMRAM   BANK0   BANK1   BANK2   BANK3   BANK4   BANK5   BANK6   BANK7
  2203 ;;      Params:         0       0       0       0       0       0       0       0       0
  2204 ;;      Locals:         0       0       0       0       0       0       0       0       0
  2205 ;;      Temps:          0       0       0       0       0       0       0       0       0
  2206 ;;      Totals:         0       0       0       0       0       0       0       0       0
  2207 ;;Total ram usage:        0 bytes
  2208 ;; Hardware stack levels used:    1
  2209 ;; Hardware stack levels required when called:   11
  2210 ;; This function calls:
  2211 ;;		Nothing
  2212 ;; This function is called by:
  2213 ;;		_APP_CustomHIDTasks
  2214 ;; This function uses a non-reentrant model
  2215 ;;
  2216                           
  2217                           	psect	text9
  2218  002284                     __ptext9:
  2219                           	opt stack 0
  2220  002284                     _ConvertADC:
  2221                           	opt stack 18
  2222                           
  2223                           ; BSR set to: 0
  2224                           ;incstack = 0
  2225  002284  82C2               	bsf	4034,1,c	;volatile
  2226  002286  0012               	return		;funcret
  2227  002288                     __end_of_ConvertADC:
  2228                           	opt stack 0
  2229                           tblptru	equ	0xFF8
  2230                           prodh	equ	0xFF4
  2231                           prodl	equ	0xFF3
  2232                           intcon	equ	0xFF2
  2233                           postinc0	equ	0xFEE
  2234                           wreg	equ	0xFE8
  2235                           indf2	equ	0xFDF
  2236                           postinc2	equ	0xFDE
  2237                           postdec2	equ	0xFDD
  2238                           plusw2	equ	0xFDB
  2239                           fsr2h	equ	0xFDA
  2240                           fsr2l	equ	0xFD9
  2241                           status	equ	0xFD8
  2242                           
  2243 ;; *************** function _BusyADC *****************
  2244 ;; Defined at:
  2245 ;;		line 26 in file "C:\Program Files (x86)\Microchip\xc8\v1.34\sources\pic18\plib\ADC\adcbusy.c"
  2246 ;; Parameters:    Size  Location     Type
  2247 ;;		None
  2248 ;; Auto vars:     Size  Location     Type
  2249 ;;		None
  2250 ;; Return value:  Size  Location     Type
  2251 ;;                  1    wreg      unsigned char 
  2252 ;; Registers used:
  2253 ;;		wreg
  2254 ;; Tracked objects:
  2255 ;;		On entry : 0/0
  2256 ;;		On exit  : 0/0
  2257 ;;		Unchanged: 0/0
  2258 ;; Data sizes:     COMRAM   BANK0   BANK1   BANK2   BANK3   BANK4   BANK5   BANK6   BANK7
  2259 ;;      Params:         0       0       0       0       0       0       0       0       0
  2260 ;;      Locals:         0       0       0       0       0       0       0       0       0
  2261 ;;      Temps:          0       0       0       0       0       0       0       0       0
  2262 ;;      Totals:         0       0       0       0       0       0       0       0       0
  2263 ;;Total ram usage:        0 bytes
  2264 ;; Hardware stack levels used:    1
  2265 ;; Hardware stack levels required when called:   11
  2266 ;; This function calls:
  2267 ;;		Nothing
  2268 ;; This function is called by:
  2269 ;;		_APP_CustomHIDTasks
  2270 ;; This function uses a non-reentrant model
  2271 ;;
  2272                           
  2273                           	psect	text10
  2274  002276                     __ptext10:
  2275                           	opt stack 0
  2276  002276                     _BusyADC:
  2277                           	opt stack 18
  2278                           
  2279                           ;incstack = 0
  2280  002276  A2C2               	btfss	4034,1,c	;volatile
  2281  002278  D002               	goto	u2410
  2282  00227A  0E01               	movlw	1
  2283  00227C  D002               	goto	l633
  2284  00227E                     u2410:
  2285  00227E  0E00               	movlw	0
  2286  002280  D000               	goto	l633
  2287  002282                     l633:
  2288  002282  0012               	return		;funcret
  2289  002284                     __end_of_BusyADC:
  2290                           	opt stack 0
  2291                           tblptru	equ	0xFF8
  2292                           prodh	equ	0xFF4
  2293                           prodl	equ	0xFF3
  2294                           intcon	equ	0xFF2
  2295                           postinc0	equ	0xFEE
  2296                           wreg	equ	0xFE8
  2297                           indf2	equ	0xFDF
  2298                           postinc2	equ	0xFDE
  2299                           postdec2	equ	0xFDD
  2300                           plusw2	equ	0xFDB
  2301                           fsr2h	equ	0xFDA
  2302                           fsr2l	equ	0xFD9
  2303                           status	equ	0xFD8
  2304                           
  2305 ;; *************** function _SYS_InterruptLow *****************
  2306 ;; Defined at:
  2307 ;;		line 51 in file "../src/system.c"
  2308 ;; Parameters:    Size  Location     Type
  2309 ;;		None
  2310 ;; Auto vars:     Size  Location     Type
  2311 ;;		None
  2312 ;; Return value:  Size  Location     Type
  2313 ;;		None               void
  2314 ;; Registers used:
  2315 ;;		None
  2316 ;; Tracked objects:
  2317 ;;		On entry : 0/0
  2318 ;;		On exit  : 0/0
  2319 ;;		Unchanged: 0/0
  2320 ;; Data sizes:     COMRAM   BANK0   BANK1   BANK2   BANK3   BANK4   BANK5   BANK6   BANK7
  2321 ;;      Params:         0       0       0       0       0       0       0       0       0
  2322 ;;      Locals:         0       0       0       0       0       0       0       0       0
  2323 ;;      Temps:         17       0       0       0       0       0       0       0       0
  2324 ;;      Totals:        17       0       0       0       0       0       0       0       0
  2325 ;;Total ram usage:       17 bytes
  2326 ;; Hardware stack levels used:    1
  2327 ;; Hardware stack levels required when called:   10
  2328 ;; This function calls:
  2329 ;;		Nothing
  2330 ;; This function is called by:
  2331 ;;		Interrupt level 1
  2332 ;; This function uses a non-reentrant model
  2333 ;;
  2334                           
  2335                           	psect	intcodelo
  2336  000018                     __pintcodelo:
  2337                           	opt stack 0
  2338  000018                     _SYS_InterruptLow:
  2339                           	opt stack 17
  2340                           
  2341                           ;incstack = 0
  2342  000018  CFD8 F001          	movff	status,??_SYS_InterruptLow
  2343  00001C  CFE8 F002          	movff	wreg,??_SYS_InterruptLow+1
  2344  000020  CFE0 F003          	movff	bsr,??_SYS_InterruptLow+2
  2345  000024  CFFA F004          	movff	pclath,??_SYS_InterruptLow+3
  2346  000028  CFFB F005          	movff	pclatu,??_SYS_InterruptLow+4
  2347  00002C  CFE9 F006          	movff	fsr0l,??_SYS_InterruptLow+5
  2348  000030  CFEA F007          	movff	fsr0h,??_SYS_InterruptLow+6
  2349  000034  CFE1 F008          	movff	fsr1l,??_SYS_InterruptLow+7
  2350  000038  CFE2 F009          	movff	fsr1h,??_SYS_InterruptLow+8
  2351  00003C  CFD9 F00A          	movff	fsr2l,??_SYS_InterruptLow+9
  2352  000040  CFDA F00B          	movff	fsr2h,??_SYS_InterruptLow+10
  2353  000044  CFF3 F00C          	movff	prodl,??_SYS_InterruptLow+11
  2354  000048  CFF4 F00D          	movff	prodh,??_SYS_InterruptLow+12
  2355  00004C  CFF6 F00E          	movff	tblptrl,??_SYS_InterruptLow+13
  2356  000050  CFF7 F00F          	movff	tblptrh,??_SYS_InterruptLow+14
  2357  000054  CFF8 F010          	movff	tblptru,??_SYS_InterruptLow+15
  2358  000058  CFF5 F011          	movff	tablat,??_SYS_InterruptLow+16
  2359  00005C  C011  FFF5         	movff	??_SYS_InterruptLow+16,tablat
  2360  000060  C010  FFF8         	movff	??_SYS_InterruptLow+15,tblptru
  2361  000064  C00F  FFF7         	movff	??_SYS_InterruptLow+14,tblptrh
  2362  000068  C00E  FFF6         	movff	??_SYS_InterruptLow+13,tblptrl
  2363  00006C  C00D  FFF4         	movff	??_SYS_InterruptLow+12,prodh
  2364  000070  C00C  FFF3         	movff	??_SYS_InterruptLow+11,prodl
  2365  000074  C00B  FFDA         	movff	??_SYS_InterruptLow+10,fsr2h
  2366  000078  C00A  FFD9         	movff	??_SYS_InterruptLow+9,fsr2l
  2367  00007C  C009  FFE2         	movff	??_SYS_InterruptLow+8,fsr1h
  2368  000080  C008  FFE1         	movff	??_SYS_InterruptLow+7,fsr1l
  2369  000084  C007  FFEA         	movff	??_SYS_InterruptLow+6,fsr0h
  2370  000088  C006  FFE9         	movff	??_SYS_InterruptLow+5,fsr0l
  2371  00008C  C005  FFFB         	movff	??_SYS_InterruptLow+4,pclatu
  2372  000090  C004  FFFA         	movff	??_SYS_InterruptLow+3,pclath
  2373  000094  C003  FFE0         	movff	??_SYS_InterruptLow+2,bsr
  2374  000098  C002  FFE8         	movff	??_SYS_InterruptLow+1,wreg
  2375  00009C  C001  FFD8         	movff	??_SYS_InterruptLow,status
  2376  0000A0  0010               	retfie	
  2377  0000A2                     __end_of_SYS_InterruptLow:
  2378                           	opt stack 0
  2379                           pclatu	equ	0xFFB
  2380                           pclath	equ	0xFFA
  2381                           tblptru	equ	0xFF8
  2382                           tblptrh	equ	0xFF7
  2383                           tblptrl	equ	0xFF6
  2384                           tablat	equ	0xFF5
  2385                           prodh	equ	0xFF4
  2386                           prodl	equ	0xFF3
  2387                           intcon	equ	0xFF2
  2388                           postinc0	equ	0xFEE
  2389                           fsr0h	equ	0xFEA
  2390                           fsr0l	equ	0xFE9
  2391                           wreg	equ	0xFE8
  2392                           fsr1h	equ	0xFE2
  2393                           fsr1l	equ	0xFE1
  2394                           bsr	equ	0xFE0
  2395                           indf2	equ	0xFDF
  2396                           postinc2	equ	0xFDE
  2397                           postdec2	equ	0xFDD
  2398                           plusw2	equ	0xFDB
  2399                           fsr2h	equ	0xFDA
  2400                           fsr2l	equ	0xFD9
  2401                           status	equ	0xFD8
  2402                           
  2403 ;; *************** function _SYS_InterruptHigh *****************
  2404 ;; Defined at:
  2405 ;;		line 42 in file "../src/system.c"
  2406 ;; Parameters:    Size  Location     Type
  2407 ;;		None
  2408 ;; Auto vars:     Size  Location     Type
  2409 ;;		None
  2410 ;; Return value:  Size  Location     Type
  2411 ;;		None               void
  2412 ;; Registers used:
  2413 ;;		wreg, fsr1l, fsr1h, fsr2l, fsr2h, status,2, status,0, tblptrl, tblptrh, tblptru, prodl, prodh, cstack
  2414 ;; Tracked objects:
  2415 ;;		On entry : 0/0
  2416 ;;		On exit  : 0/0
  2417 ;;		Unchanged: 0/0
  2418 ;; Data sizes:     COMRAM   BANK0   BANK1   BANK2   BANK3   BANK4   BANK5   BANK6   BANK7
  2419 ;;      Params:         0       0       0       0       0       0       0       0       0
  2420 ;;      Locals:         0       0       0       0       0       0       0       0       0
  2421 ;;      Temps:          0      14       0       0       0       0       0       0       0
  2422 ;;      Totals:         0      14       0       0       0       0       0       0       0
  2423 ;;Total ram usage:       14 bytes
  2424 ;; Hardware stack levels used:    1
  2425 ;; Hardware stack levels required when called:    9
  2426 ;; This function calls:
  2427 ;;		_USBDeviceTasks
  2428 ;; This function is called by:
  2429 ;;		Interrupt level 2
  2430 ;; This function uses a non-reentrant model
  2431 ;;
  2432                           
  2433                           	psect	intcode
  2434  000008                     __pintcode:
  2435                           	opt stack 0
  2436  000008                     _SYS_InterruptHigh:
  2437                           	opt stack 17
  2438                           
  2439                           ;incstack = 0
  2440  000008  CFFA F080          	movff	pclath,??_SYS_InterruptHigh
  2441  00000C  CFFB F081          	movff	pclatu,??_SYS_InterruptHigh+1
  2442  000010  CFE9 F082          	movff	fsr0l,??_SYS_InterruptHigh+2
  2443  000014  EDB5  F00F         	call	int_func,f	;refresh shadow registers
  2444                           pclatu	equ	0xFFB
  2445                           pclath	equ	0xFFA
  2446                           tblptru	equ	0xFF8
  2447                           tblptrh	equ	0xFF7
  2448                           tblptrl	equ	0xFF6
  2449                           tablat	equ	0xFF5
  2450                           prodh	equ	0xFF4
  2451                           prodl	equ	0xFF3
  2452                           intcon	equ	0xFF2
  2453                           postinc0	equ	0xFEE
  2454                           fsr0h	equ	0xFEA
  2455                           fsr0l	equ	0xFE9
  2456                           wreg	equ	0xFE8
  2457                           fsr1h	equ	0xFE2
  2458                           fsr1l	equ	0xFE1
  2459                           bsr	equ	0xFE0
  2460                           indf2	equ	0xFDF
  2461                           postinc2	equ	0xFDE
  2462                           postdec2	equ	0xFDD
  2463                           plusw2	equ	0xFDB
  2464                           fsr2h	equ	0xFDA
  2465                           fsr2l	equ	0xFD9
  2466                           status	equ	0xFD8
  2467                           
  2468                           	psect	intcode_body
  2469  001F6A                     __pintcode_body:
  2470                           	opt stack 17
  2471  001F6A                     int_func:
  2472                           	opt stack 17
  2473  001F6A  0006               	pop		; remove dummy address from shadow register refresh
  2474  001F6C  CFEA F083          	movff	fsr0h,??_SYS_InterruptHigh+3
  2475  001F70  CFE1 F084          	movff	fsr1l,??_SYS_InterruptHigh+4
  2476  001F74  CFE2 F085          	movff	fsr1h,??_SYS_InterruptHigh+5
  2477  001F78  CFD9 F086          	movff	fsr2l,??_SYS_InterruptHigh+6
  2478  001F7C  CFDA F087          	movff	fsr2h,??_SYS_InterruptHigh+7
  2479  001F80  CFF3 F088          	movff	prodl,??_SYS_InterruptHigh+8
  2480  001F84  CFF4 F089          	movff	prodh,??_SYS_InterruptHigh+9
  2481  001F88  CFF6 F08A          	movff	tblptrl,??_SYS_InterruptHigh+10
  2482  001F8C  CFF7 F08B          	movff	tblptrh,??_SYS_InterruptHigh+11
  2483  001F90  CFF8 F08C          	movff	tblptru,??_SYS_InterruptHigh+12
  2484  001F94  CFF5 F08D          	movff	tablat,??_SYS_InterruptHigh+13
  2485                           
  2486                           ;system.c: 48: USBDeviceTasks();
  2487  001F98  EC30  F007         	call	_USBDeviceTasks	;wreg free
  2488  001F9C  C08D  FFF5         	movff	??_SYS_InterruptHigh+13,tablat
  2489  001FA0  C08C  FFF8         	movff	??_SYS_InterruptHigh+12,tblptru
  2490  001FA4  C08B  FFF7         	movff	??_SYS_InterruptHigh+11,tblptrh
  2491  001FA8  C08A  FFF6         	movff	??_SYS_InterruptHigh+10,tblptrl
  2492  001FAC  C089  FFF4         	movff	??_SYS_InterruptHigh+9,prodh
  2493  001FB0  C088  FFF3         	movff	??_SYS_InterruptHigh+8,prodl
  2494  001FB4  C087  FFDA         	movff	??_SYS_InterruptHigh+7,fsr2h
  2495  001FB8  C086  FFD9         	movff	??_SYS_InterruptHigh+6,fsr2l
  2496  001FBC  C085  FFE2         	movff	??_SYS_InterruptHigh+5,fsr1h
  2497  001FC0  C084  FFE1         	movff	??_SYS_InterruptHigh+4,fsr1l
  2498  001FC4  C083  FFEA         	movff	??_SYS_InterruptHigh+3,fsr0h
  2499  001FC8  C082  FFE9         	movff	??_SYS_InterruptHigh+2,fsr0l
  2500  001FCC  C081  FFFB         	movff	??_SYS_InterruptHigh+1,pclatu
  2501  001FD0  C080  FFFA         	movff	??_SYS_InterruptHigh,pclath
  2502  001FD4  0011               	retfie		f
  2503  001FD6                     __end_of_SYS_InterruptHigh:
  2504                           	opt stack 0
  2505                           pclatu	equ	0xFFB
  2506                           pclath	equ	0xFFA
  2507                           tblptru	equ	0xFF8
  2508                           tblptrh	equ	0xFF7
  2509                           tblptrl	equ	0xFF6
  2510                           tablat	equ	0xFF5
  2511                           prodh	equ	0xFF4
  2512                           prodl	equ	0xFF3
  2513                           intcon	equ	0xFF2
  2514                           postinc0	equ	0xFEE
  2515                           fsr0h	equ	0xFEA
  2516                           fsr0l	equ	0xFE9
  2517                           wreg	equ	0xFE8
  2518                           fsr1h	equ	0xFE2
  2519                           fsr1l	equ	0xFE1
  2520                           bsr	equ	0xFE0
  2521                           indf2	equ	0xFDF
  2522                           postinc2	equ	0xFDE
  2523                           postdec2	equ	0xFDD
  2524                           plusw2	equ	0xFDB
  2525                           fsr2h	equ	0xFDA
  2526                           fsr2l	equ	0xFD9
  2527                           status	equ	0xFD8
  2528                           
  2529 ;; *************** function _USBDeviceTasks *****************
  2530 ;; Defined at:
  2531 ;;		line 489 in file "../src/usb/src/usb_device.c"
  2532 ;; Parameters:    Size  Location     Type
  2533 ;;		None
  2534 ;; Auto vars:     Size  Location     Type
  2535 ;;  i               1   46[COMRAM] unsigned char 
  2536 ;; Return value:  Size  Location     Type
  2537 ;;		None               void
  2538 ;; Registers used:
  2539 ;;		wreg, fsr1l, fsr1h, fsr2l, fsr2h, status,2, status,0, tblptrl, tblptrh, tblptru, prodl, prodh, cstack
  2540 ;; Tracked objects:
  2541 ;;		On entry : 0/0
  2542 ;;		On exit  : 0/0
  2543 ;;		Unchanged: 0/0
  2544 ;; Data sizes:     COMRAM   BANK0   BANK1   BANK2   BANK3   BANK4   BANK5   BANK6   BANK7
  2545 ;;      Params:         0       0       0       0       0       0       0       0       0
  2546 ;;      Locals:         1       0       0       0       0       0       0       0       0
  2547 ;;      Temps:          0       0       0       0       0       0       0       0       0
  2548 ;;      Totals:         1       0       0       0       0       0       0       0       0
  2549 ;;Total ram usage:        1 bytes
  2550 ;; Hardware stack levels used:    1
  2551 ;; Hardware stack levels required when called:    8
  2552 ;; This function calls:
  2553 ;;		_USBCtrlEPAllowStatusStage
  2554 ;;		_USBCtrlEPService
  2555 ;;		_USBStallHandler
  2556 ;;		_USBSuspend
  2557 ;;		_USBWakeFromSuspend
  2558 ;;		_USER_USB_CALLBACK_EVENT_HANDLER
  2559 ;;		i2_USBDeviceInit
  2560 ;; This function is called by:
  2561 ;;		_SYS_InterruptHigh
  2562 ;; This function uses a non-reentrant model
  2563 ;;
  2564                           
  2565                           	psect	text13
  2566  000E60                     __ptext13:
  2567                           	opt stack 0
  2568  000E60                     _USBDeviceTasks:
  2569                           	opt stack 17
  2570                           
  2571                           ;usb_device.c: 491: uint8_t i;
  2572                           ;usb_device.c: 602: if(USBDeviceState == ATTACHED_STATE)
  2573                           
  2574                           ;incstack = 0
  2575  000E60  0100               	movlb	0	; () banked
  2576  000E62  0578               	decf	_USBDeviceState& (0+255),w,b	;volatile
  2577  000E64  B4D8               	btfsc	status,2,c
  2578                           
  2579                           ; BSR set to: 0
  2580                           ;usb_device.c: 603: {
  2581                           ;usb_device.c: 613: if(!UCONbits.SE0)
  2582  000E66  BA6D               	btfsc	3949,5,c	;volatile
  2583  000E68  D008               	goto	i2l3528
  2584                           
  2585                           ; BSR set to: 0
  2586                           ;usb_device.c: 614: {
  2587                           ;usb_device.c: 615: {UIR = 0;};
  2588  000E6A  0E00               	movlw	0
  2589  000E6C  6E68               	movwf	3944,c	;volatile
  2590                           
  2591                           ; BSR set to: 0
  2592                           ;usb_device.c: 619: UIEbits.URSTIE = 1;
  2593  000E6E  8069               	bsf	3945,0,c	;volatile
  2594                           
  2595                           ; BSR set to: 0
  2596                           ;usb_device.c: 620: UIEbits.IDLEIE = 1;
  2597  000E70  8869               	bsf	3945,4,c	;volatile
  2598                           
  2599                           ;usb_device.c: 621: USBDeviceState = POWERED_STATE;
  2600  000E72  0E02               	movlw	2
  2601  000E74  0100               	movlb	0	; () banked
  2602  000E76  6F78               	movwf	_USBDeviceState& (0+255),b	;volatile
  2603                           
  2604                           ; BSR set to: 0
  2605  000E78  D000               	goto	i2l3528
  2606  000E7A                     i2l3528:
  2607                           
  2608                           ; BSR set to: 0
  2609                           ;usb_device.c: 622: }
  2610                           ;usb_device.c: 623: }
  2611                           ;usb_device.c: 639: if(UIRbits.ACTVIF && UIEbits.ACTVIE)
  2612  000E7A  B468               	btfsc	3944,2,c	;volatile
  2613                           
  2614                           ; BSR set to: 0
  2615  000E7C  A469               	btfss	3945,2,c	;volatile
  2616  000E7E  D004               	goto	i2l3536
  2617                           
  2618                           ; BSR set to: 0
  2619                           ;usb_device.c: 640: {
  2620                           ;usb_device.c: 641: (UIR &= 0xFB);
  2621  000E80  9468               	bcf	3944,2,c	;volatile
  2622                           
  2623                           ; BSR set to: 0
  2624                           ;usb_device.c: 645: USBWakeFromSuspend();
  2625  000E82  ECC7  F010         	call	_USBWakeFromSuspend	;wreg free
  2626  000E86  D000               	goto	i2l3536
  2627  000E88                     i2l3536:
  2628                           
  2629                           ;usb_device.c: 647: }
  2630                           ;usb_device.c: 652: if(UCONbits.SUSPND==1)
  2631  000E88  B26D               	btfsc	3949,1,c	;volatile
  2632  000E8A  D08D               	goto	i2l365
  2633                           
  2634                           ;usb_device.c: 656: }
  2635                           ;usb_device.c: 668: if(UIRbits.URSTIF && UIEbits.URSTIE)
  2636                           
  2637                           ;usb_device.c: 655: return;
  2638                           
  2639                           ;usb_device.c: 653: {
  2640                           ;usb_device.c: 654: {PIR2bits.USBIF = 0;};
  2641  000E8C  B068               	btfsc	3944,0,c	;volatile
  2642  000E8E  A069               	btfss	3945,0,c	;volatile
  2643  000E90  D008               	goto	i2l3550
  2644                           
  2645                           ;usb_device.c: 669: {
  2646                           ;usb_device.c: 670: USBDeviceInit();
  2647  000E92  EC75  F008         	call	i2_USBDeviceInit	;wreg free
  2648                           
  2649                           ;usb_device.c: 674: {PIE2bits.USBIE = 1;};
  2650  000E96  8AA0               	bsf	4000,5,c	;volatile
  2651                           
  2652                           ;usb_device.c: 676: USBDeviceState = DEFAULT_STATE;
  2653  000E98  0E04               	movlw	4
  2654  000E9A  0100               	movlb	0	; () banked
  2655  000E9C  6F78               	movwf	_USBDeviceState& (0+255),b	;volatile
  2656                           
  2657                           ; BSR set to: 0
  2658                           ;usb_device.c: 686: (UIR &= 0xFE);
  2659  000E9E  9068               	bcf	3944,0,c	;volatile
  2660  000EA0  D000               	goto	i2l3550
  2661  000EA2                     i2l3550:
  2662                           
  2663                           ;usb_device.c: 687: }
  2664                           ;usb_device.c: 692: if(UIRbits.IDLEIF && UIEbits.IDLEIE)
  2665  000EA2  B868               	btfsc	3944,4,c	;volatile
  2666  000EA4  A869               	btfss	3945,4,c	;volatile
  2667  000EA6  D004               	goto	i2l3558
  2668                           
  2669                           ;usb_device.c: 693: {
  2670                           ;usb_device.c: 698: USBSuspend();
  2671  000EA8  EC0C  F011         	call	_USBSuspend	;wreg free
  2672                           
  2673                           ;usb_device.c: 701: (UIR &= 0xEF);
  2674  000EAC  9868               	bcf	3944,4,c	;volatile
  2675  000EAE  D000               	goto	i2l3558
  2676  000EB0                     i2l3558:
  2677                           
  2678                           ;usb_device.c: 702: }
  2679                           ;usb_device.c: 704: if(UIRbits.SOFIF)
  2680  000EB0  AC68               	btfss	3944,6,c	;volatile
  2681  000EB2  D01D               	goto	i2l3574
  2682                           
  2683                           ;usb_device.c: 705: {
  2684                           ;usb_device.c: 706: if(UIEbits.SOFIE)
  2685  000EB4  AC69               	btfss	3945,6,c	;volatile
  2686  000EB6  D00F               	goto	i2l3564
  2687                           
  2688                           ;usb_device.c: 707: {
  2689                           ;usb_device.c: 708: USER_USB_CALLBACK_EVENT_HANDLER(EVENT_SOF,0,1);
  2690  000EB8  0E00               	movlw	0
  2691  000EBA  6E1F               	movwf	USER_USB_CALLBACK_EVENT_HANDLER@event+1,c
  2692  000EBC  0E73               	movlw	115
  2693  000EBE  6E1E               	movwf	USER_USB_CALLBACK_EVENT_HANDLER@event,c
  2694  000EC0  0E00               	movlw	0
  2695  000EC2  6E20               	movwf	USER_USB_CALLBACK_EVENT_HANDLER@pdata,c
  2696  000EC4  0E00               	movlw	0
  2697  000EC6  6E21               	movwf	USER_USB_CALLBACK_EVENT_HANDLER@pdata+1,c
  2698  000EC8  0E00               	movlw	0
  2699  000ECA  6E23               	movwf	USER_USB_CALLBACK_EVENT_HANDLER@size+1,c
  2700  000ECC  0E01               	movlw	1
  2701  000ECE  6E22               	movwf	USER_USB_CALLBACK_EVENT_HANDLER@size,c
  2702  000ED0  EC37  F00F         	call	_USER_USB_CALLBACK_EVENT_HANDLER	;wreg free
  2703  000ED4  D000               	goto	i2l3564
  2704  000ED6                     i2l3564:
  2705                           
  2706                           ;usb_device.c: 709: }
  2707                           ;usb_device.c: 710: (UIR &= 0xBF);
  2708  000ED6  9C68               	bcf	3944,6,c	;volatile
  2709                           
  2710                           ;usb_device.c: 735: if(USBStatusStageTimeoutCounter != 0u)
  2711  000ED8  5042               	movf	_USBStatusStageTimeoutCounter,w,c	;volatile
  2712  000EDA  B4D8               	btfsc	status,2,c
  2713  000EDC  D002               	goto	i2l3570
  2714                           
  2715                           ;usb_device.c: 736: {
  2716                           ;usb_device.c: 737: USBStatusStageTimeoutCounter--;
  2717  000EDE  0642               	decf	_USBStatusStageTimeoutCounter,f,c	;volatile
  2718  000EE0  D000               	goto	i2l3570
  2719  000EE2                     i2l3570:
  2720                           
  2721                           ;usb_device.c: 738: }
  2722                           ;usb_device.c: 744: if(USBStatusStageTimeoutCounter == 0)
  2723  000EE2  5042               	movf	_USBStatusStageTimeoutCounter,w,c	;volatile
  2724  000EE4  A4D8               	btfss	status,2,c
  2725  000EE6  D003               	goto	i2l3574
  2726                           
  2727                           ;usb_device.c: 745: {
  2728                           ;usb_device.c: 746: USBCtrlEPAllowStatusStage();
  2729  000EE8  EC39  F00D         	call	_USBCtrlEPAllowStatusStage	;wreg free
  2730  000EEC  D000               	goto	i2l3574
  2731  000EEE                     i2l3574:
  2732                           
  2733                           ;usb_device.c: 747: }
  2734                           ;usb_device.c: 749: }
  2735                           ;usb_device.c: 751: if(UIRbits.STALLIF && UIEbits.STALLIE)
  2736  000EEE  BA68               	btfsc	3944,5,c	;volatile
  2737  000EF0  AA69               	btfss	3945,5,c	;volatile
  2738  000EF2  D003               	goto	i2l3580
  2739                           
  2740                           ;usb_device.c: 752: {
  2741                           ;usb_device.c: 753: USBStallHandler();
  2742  000EF4  EC1A  F010         	call	_USBStallHandler	;wreg free
  2743  000EF8  D000               	goto	i2l3580
  2744  000EFA                     i2l3580:
  2745                           
  2746                           ;usb_device.c: 754: }
  2747                           ;usb_device.c: 756: if(UIRbits.UERRIF && UIEbits.UERRIE)
  2748  000EFA  B268               	btfsc	3944,1,c	;volatile
  2749  000EFC  A269               	btfss	3945,1,c	;volatile
  2750  000EFE  D010               	goto	i2l3588
  2751                           
  2752                           ;usb_device.c: 757: {
  2753                           ;usb_device.c: 758: USER_USB_CALLBACK_EVENT_HANDLER(EVENT_BUS_ERROR,0,1);
  2754  000F00  0E7F               	movlw	127
  2755  000F02  6E1F               	movwf	USER_USB_CALLBACK_EVENT_HANDLER@event+1,c
  2756  000F04  681E               	setf	USER_USB_CALLBACK_EVENT_HANDLER@event,c
  2757  000F06  0E00               	movlw	0
  2758  000F08  6E20               	movwf	USER_USB_CALLBACK_EVENT_HANDLER@pdata,c
  2759  000F0A  0E00               	movlw	0
  2760  000F0C  6E21               	movwf	USER_USB_CALLBACK_EVENT_HANDLER@pdata+1,c
  2761  000F0E  0E00               	movlw	0
  2762  000F10  6E23               	movwf	USER_USB_CALLBACK_EVENT_HANDLER@size+1,c
  2763  000F12  0E01               	movlw	1
  2764  000F14  6E22               	movwf	USER_USB_CALLBACK_EVENT_HANDLER@size,c
  2765  000F16  EC37  F00F         	call	_USER_USB_CALLBACK_EVENT_HANDLER	;wreg free
  2766                           
  2767                           ;usb_device.c: 759: {UEIR = 0;};
  2768  000F1A  0E00               	movlw	0
  2769  000F1C  6E6A               	movwf	3946,c	;volatile
  2770  000F1E  D000               	goto	i2l3588
  2771  000F20                     i2l3588:
  2772                           
  2773                           ;usb_device.c: 767: }
  2774                           ;usb_device.c: 774: if(USBDeviceState < DEFAULT_STATE)
  2775  000F20  0E04               	movlw	4
  2776  000F22  0100               	movlb	0	; () banked
  2777  000F24  6178               	cpfslt	_USBDeviceState& (0+255),b	;volatile
  2778  000F26  D001               	goto	i2l364
  2779  000F28  D03E               	goto	i2l365
  2780  000F2A                     i2l364:
  2781                           
  2782                           ; BSR set to: 0
  2783                           ;usb_device.c: 778: }
  2784                           ;usb_device.c: 783: if(UIEbits.TRNIE)
  2785  000F2A  A669               	btfss	3945,3,c	;volatile
  2786  000F2C  D03C               	goto	i2l365
  2787                           
  2788                           ; BSR set to: 0
  2789                           ;usb_device.c: 784: {
  2790                           ;usb_device.c: 785: for(i = 0; i < 4u; i++)
  2791  000F2E  0E00               	movlw	0
  2792  000F30  6E2F               	movwf	USBDeviceTasks@i,c
  2793  000F32                     i2l3594:
  2794                           
  2795                           ; BSR set to: 0
  2796  000F32  0E03               	movlw	3
  2797  000F34  642F               	cpfsgt	USBDeviceTasks@i,c
  2798  000F36  D001               	goto	i2l366
  2799                           
  2800                           ; BSR set to: 0
  2801  000F38  D036               	goto	i2l365
  2802  000F3A                     i2l366:
  2803                           
  2804                           ;usb_device.c: 786: {
  2805                           ;usb_device.c: 787: if(UIRbits.TRNIF)
  2806  000F3A  A668               	btfss	3944,3,c	;volatile
  2807  000F3C  D034               	goto	i2l365
  2808                           
  2809                           ;usb_device.c: 788: {
  2810                           ;usb_device.c: 790: USTATcopy.Val = USTAT;
  2811  000F3E  CF6C F048          	movff	3948,_USTATcopy	;volatile
  2812                           
  2813                           ;usb_device.c: 791: endpoint_number = USTATcopy.endpoint_number;
  2814  000F42  3048               	rrcf	_USTATcopy,w,c	;volatile
  2815  000F44  32E8               	rrcf	wreg,f,c
  2816  000F46  32E8               	rrcf	wreg,f,c
  2817  000F48  0B0F               	andlw	15
  2818  000F4A  6E44               	movwf	_endpoint_number,c	;volatile
  2819                           
  2820                           ;usb_device.c: 793: (UIR &= 0xF7);
  2821  000F4C  9668               	bcf	3944,3,c	;volatile
  2822                           
  2823                           ;usb_device.c: 798: if(USTATcopy.direction == 0)
  2824  000F4E  B448               	btfsc	_USTATcopy,2,c	;volatile
  2825  000F50  D007               	goto	i2l3608
  2826                           
  2827                           ;usb_device.c: 799: {
  2828                           ;usb_device.c: 800: ep_data_out[endpoint_number].bits.ping_pong_state ^= 1;
  2829  000F52  5044               	movf	_endpoint_number,w,c	;volatile
  2830  000F54  0D01               	mullw	1
  2831  000F56  0E76               	movlw	low _ep_data_out
  2832  000F58  24F3               	addwf	prodl,w,c
  2833  000F5A  6ED9               	movwf	fsr2l,c
  2834  000F5C  0E00               	movlw	high _ep_data_out
  2835  000F5E  D006               	goto	L3
  2836  000F60                     i2l3608:
  2837                           
  2838                           ;usb_device.c: 802: else
  2839                           ;usb_device.c: 803: {
  2840                           ;usb_device.c: 804: ep_data_in[endpoint_number].bits.ping_pong_state ^= 1;
  2841  000F60  5044               	movf	_endpoint_number,w,c	;volatile
  2842  000F62  0D01               	mullw	1
  2843  000F64  0E74               	movlw	low _ep_data_in
  2844  000F66  24F3               	addwf	prodl,w,c
  2845  000F68  6ED9               	movwf	fsr2l,c
  2846  000F6A  0E00               	movlw	high _ep_data_in
  2847  000F6C                     L3:
  2848  000F6C  20F4               	addwfc	prodh,w,c
  2849  000F6E  6EDA               	movwf	fsr2h,c
  2850  000F70  0100               	movlb	0	; () banked
  2851  000F72  70DF               	btg	indf2,0,c
  2852  000F74  D000               	goto	i2l3610
  2853  000F76                     i2l3610:
  2854                           
  2855                           ; BSR set to: 0
  2856                           ;usb_device.c: 805: }
  2857                           ;usb_device.c: 810: if(endpoint_number == 0)
  2858  000F76  5044               	movf	_endpoint_number,w,c	;volatile
  2859  000F78  A4D8               	btfss	status,2,c
  2860  000F7A  D003               	goto	i2l3614
  2861                           
  2862                           ; BSR set to: 0
  2863                           ;usb_device.c: 811: {
  2864                           ;usb_device.c: 812: USBCtrlEPService();
  2865  000F7C  EC6E  F00C         	call	_USBCtrlEPService	;wreg free
  2866                           
  2867                           ;usb_device.c: 813: }
  2868  000F80  D010               	goto	i2l3616
  2869  000F82                     i2l3614:
  2870                           
  2871                           ;usb_device.c: 814: else
  2872                           ;usb_device.c: 815: {
  2873                           ;usb_device.c: 816: USER_USB_CALLBACK_EVENT_HANDLER(EVENT_TRANSFER,(uint8_t*)&USTATcopy.
      +                          Val,0);
  2874  000F82  0E00               	movlw	0
  2875  000F84  6E1F               	movwf	USER_USB_CALLBACK_EVENT_HANDLER@event+1,c
  2876  000F86  0E72               	movlw	114
  2877  000F88  6E1E               	movwf	USER_USB_CALLBACK_EVENT_HANDLER@event,c
  2878  000F8A  0E48               	movlw	low _USTATcopy
  2879  000F8C  6E20               	movwf	USER_USB_CALLBACK_EVENT_HANDLER@pdata,c
  2880  000F8E  0E00               	movlw	high _USTATcopy
  2881  000F90  6E21               	movwf	USER_USB_CALLBACK_EVENT_HANDLER@pdata+1,c
  2882  000F92  0E00               	movlw	0
  2883  000F94  6E23               	movwf	USER_USB_CALLBACK_EVENT_HANDLER@size+1,c
  2884  000F96  0E00               	movlw	0
  2885  000F98  6E22               	movwf	USER_USB_CALLBACK_EVENT_HANDLER@size,c
  2886  000F9A  EC37  F00F         	call	_USER_USB_CALLBACK_EVENT_HANDLER	;wreg free
  2887                           
  2888                           ;usb_device.c: 817: }
  2889                           ;usb_device.c: 818: }
  2890  000F9E  D001               	goto	i2l3616
  2891                           
  2892                           ;usb_device.c: 819: else
  2893                           ;usb_device.c: 820: {
  2894                           ;usb_device.c: 821: break;
  2895  000FA0  D002               	goto	i2l365
  2896  000FA2                     i2l3616:
  2897  000FA2  2A2F               	incf	USBDeviceTasks@i,f,c
  2898  000FA4  D7C6               	goto	i2l3594
  2899  000FA6                     i2l365:
  2900                           
  2901                           ;usb_device.c: 822: }
  2902                           ;usb_device.c: 823: }
  2903                           ;usb_device.c: 824: }
  2904                           ;usb_device.c: 826: {PIR2bits.USBIF = 0;};
  2905  000FA6  9AA1               	bcf	4001,5,c	;volatile
  2906  000FA8  0012               	return		;funcret
  2907  000FAA                     __end_of_USBDeviceTasks:
  2908                           	opt stack 0
  2909                           pclatu	equ	0xFFB
  2910                           pclath	equ	0xFFA
  2911                           tblptru	equ	0xFF8
  2912                           tblptrh	equ	0xFF7
  2913                           tblptrl	equ	0xFF6
  2914                           tablat	equ	0xFF5
  2915                           prodh	equ	0xFF4
  2916                           prodl	equ	0xFF3
  2917                           intcon	equ	0xFF2
  2918                           postinc0	equ	0xFEE
  2919                           fsr0h	equ	0xFEA
  2920                           fsr0l	equ	0xFE9
  2921                           wreg	equ	0xFE8
  2922                           fsr1h	equ	0xFE2
  2923                           fsr1l	equ	0xFE1
  2924                           bsr	equ	0xFE0
  2925                           indf2	equ	0xFDF
  2926                           postinc2	equ	0xFDE
  2927                           postdec2	equ	0xFDD
  2928                           plusw2	equ	0xFDB
  2929                           fsr2h	equ	0xFDA
  2930                           fsr2l	equ	0xFD9
  2931                           status	equ	0xFD8
  2932                           
  2933 ;; *************** function i2_USBDeviceInit *****************
  2934 ;; Defined at:
  2935 ;;		line 298 in file "../src/usb/src/usb_device.c"
  2936 ;; Parameters:    Size  Location     Type
  2937 ;;		None
  2938 ;; Auto vars:     Size  Location     Type
  2939 ;;  USBDeviceIni    1   25[COMRAM] unsigned char 
  2940 ;; Return value:  Size  Location     Type
  2941 ;;		None               void
  2942 ;; Registers used:
  2943 ;;		wreg, fsr2l, fsr2h, status,2, status,0, prodl, prodh, cstack
  2944 ;; Tracked objects:
  2945 ;;		On entry : 0/0
  2946 ;;		On exit  : 0/0
  2947 ;;		Unchanged: 0/0
  2948 ;; Data sizes:     COMRAM   BANK0   BANK1   BANK2   BANK3   BANK4   BANK5   BANK6   BANK7
  2949 ;;      Params:         0       0       0       0       0       0       0       0       0
  2950 ;;      Locals:         1       0       0       0       0       0       0       0       0
  2951 ;;      Temps:          0       0       0       0       0       0       0       0       0
  2952 ;;      Totals:         1       0       0       0       0       0       0       0       0
  2953 ;;Total ram usage:        1 bytes
  2954 ;; Hardware stack levels used:    1
  2955 ;; Hardware stack levels required when called:    1
  2956 ;; This function calls:
  2957 ;;		i2_memset
  2958 ;; This function is called by:
  2959 ;;		_USBDeviceTasks
  2960 ;; This function uses a non-reentrant model
  2961 ;;
  2962                           
  2963                           	psect	text14
  2964  0010EA                     __ptext14:
  2965                           	opt stack 0
  2966  0010EA                     i2_USBDeviceInit:
  2967                           	opt stack 23
  2968                           
  2969                           ;usb_device.c: 300: uint8_t i;
  2970                           ;usb_device.c: 302: {PIE2bits.USBIE = 0;};
  2971                           
  2972                           ;incstack = 0
  2973  0010EA  9AA0               	bcf	4000,5,c	;volatile
  2974                           
  2975                           ;usb_device.c: 305: {UEIR = 0;};
  2976  0010EC  0E00               	movlw	0
  2977  0010EE  6E6A               	movwf	3946,c	;volatile
  2978                           
  2979                           ;usb_device.c: 308: {UIR = 0;};
  2980  0010F0  0E00               	movlw	0
  2981  0010F2  6E68               	movwf	3944,c	;volatile
  2982                           
  2983                           ;usb_device.c: 311: UEP0 = 0;
  2984  0010F4  0E00               	movlw	0
  2985  0010F6  6E70               	movwf	3952,c	;volatile
  2986                           
  2987                           ;usb_device.c: 313: memset((void*)&UEP1,0x00,(1));;
  2988  0010F8  0E71               	movlw	113
  2989  0010FA  6E12               	movwf	i2memset@p1,c
  2990  0010FC  0E0F               	movlw	15
  2991  0010FE  6E13               	movwf	i2memset@p1+1,c
  2992  001100  0E00               	movlw	0
  2993  001102  6E15               	movwf	i2memset@c+1,c
  2994  001104  0E00               	movlw	0
  2995  001106  6E14               	movwf	i2memset@c,c
  2996  001108  0E00               	movlw	0
  2997  00110A  6E17               	movwf	i2memset@n+1,c
  2998  00110C  0E01               	movlw	1
  2999  00110E  6E16               	movwf	i2memset@n,c
  3000  001110  ECDF  F010         	call	i2_memset	;wreg free
  3001                           
  3002                           ;usb_device.c: 315: { UCFG = 0x10 | 0x00 | 0x04 | 0x02; UEIE = 0x9F; UIE = 0x39 | 0x40 |
      +                           0x02; };
  3003  001114  0E16               	movlw	22
  3004  001116  6E6F               	movwf	3951,c	;volatile
  3005  001118  0E9F               	movlw	159
  3006  00111A  6E6B               	movwf	3947,c	;volatile
  3007  00111C  0E7B               	movlw	123
  3008  00111E  6E69               	movwf	3945,c	;volatile
  3009                           
  3010                           ;usb_device.c: 318: ;
  3011                           ;usb_device.c: 321: ;
  3012                           ;usb_device.c: 324: for(i=0;i<(sizeof(BDT)/sizeof(BDT_ENTRY));i++)
  3013  001120  0E00               	movlw	0
  3014  001122  6E1A               	movwf	i2USBDeviceInit@i,c
  3015  001124  D00E               	goto	i2l3324
  3016  001126  D010               	goto	i2l342
  3017  001128                     i2l3320:
  3018                           
  3019                           ;usb_device.c: 325: {
  3020                           ;usb_device.c: 326: BDT[i].Val = 0x00;
  3021  001128  501A               	movf	i2USBDeviceInit@i,w,c
  3022  00112A  0D04               	mullw	4
  3023  00112C  0E00               	movlw	0
  3024  00112E  24F3               	addwf	prodl,w,c
  3025  001130  6ED9               	movwf	fsr2l,c
  3026  001132  0E04               	movlw	4
  3027  001134  20F4               	addwfc	prodh,w,c
  3028  001136  6EDA               	movwf	fsr2h,c
  3029  001138  6ADE               	clrf	postinc2,c
  3030  00113A  6ADE               	clrf	postinc2,c
  3031  00113C  6ADE               	clrf	postinc2,c
  3032  00113E  6ADD               	clrf	postdec2,c
  3033  001140  2A1A               	incf	i2USBDeviceInit@i,f,c
  3034  001142                     i2l3324:
  3035  001142  0E07               	movlw	7
  3036  001144  641A               	cpfsgt	i2USBDeviceInit@i,c
  3037  001146  D7F0               	goto	i2l3320
  3038  001148                     i2l342:
  3039                           
  3040                           ;usb_device.c: 327: }
  3041                           ;usb_device.c: 330: UCONbits.PPBRST = 1;
  3042  001148  8C6D               	bsf	3949,6,c	;volatile
  3043                           
  3044                           ;usb_device.c: 333: UADDR = 0x00;
  3045  00114A  0E00               	movlw	0
  3046  00114C  6E6E               	movwf	3950,c	;volatile
  3047                           
  3048                           ;usb_device.c: 336: UCONbits.PKTDIS = 0;
  3049  00114E  986D               	bcf	3949,4,c	;volatile
  3050                           
  3051                           ;usb_device.c: 339: UCONbits.PPBRST = 0;
  3052  001150  9C6D               	bcf	3949,6,c	;volatile
  3053                           
  3054                           ;usb_device.c: 342: while(UIRbits.TRNIF == 1)
  3055  001152  D00D               	goto	i2l3340
  3056  001154                     i2l3332:
  3057                           
  3058                           ;usb_device.c: 343: {
  3059                           ;usb_device.c: 344: (UIR &= 0xF7);
  3060  001154  9668               	bcf	3944,3,c	;volatile
  3061                           
  3062                           ;usb_device.c: 346: inPipes[0].info.Val = 0;
  3063  001156  0E00               	movlw	0
  3064  001158  0100               	movlb	0	; () banked
  3065  00115A  6F7D               	movwf	(_inPipes+3)& (0+255),b	;volatile
  3066                           
  3067                           ; BSR set to: 0
  3068                           ;usb_device.c: 347: outPipes[0].info.Val = 0;
  3069  00115C  0E00               	movlw	0
  3070  00115E  0100               	movlb	0	; () banked
  3071  001160  6F63               	movwf	(_outPipes+3)& (0+255),b	;volatile
  3072                           
  3073                           ; BSR set to: 0
  3074                           ;usb_device.c: 348: outPipes[0].wCount.Val = 0;
  3075  001162  0E00               	movlw	0
  3076  001164  0100               	movlb	0	; () banked
  3077  001166  6F65               	movwf	(_outPipes+5)& (0+255),b	;volatile
  3078  001168  0E00               	movlw	0
  3079  00116A  6F64               	movwf	(_outPipes+4)& (0+255),b	;volatile
  3080  00116C  D000               	goto	i2l3340
  3081  00116E                     i2l3340:
  3082  00116E  B668               	btfsc	3944,3,c	;volatile
  3083  001170  D7F1               	goto	i2l3332
  3084                           
  3085                           ;usb_device.c: 349: }
  3086                           ;usb_device.c: 353: USBStatusStageEnabledFlag1 = 1;
  3087  001172  0E01               	movlw	1
  3088  001174  6E40               	movwf	_USBStatusStageEnabledFlag1,c	;volatile
  3089                           
  3090                           ;usb_device.c: 354: USBStatusStageEnabledFlag2 = 1;
  3091  001176  0E01               	movlw	1
  3092  001178  6E41               	movwf	_USBStatusStageEnabledFlag2,c	;volatile
  3093                           
  3094                           ;usb_device.c: 356: USBDeferINDataStagePackets = 0;
  3095  00117A  0E00               	movlw	0
  3096  00117C  6E3D               	movwf	_USBDeferINDataStagePackets,c	;volatile
  3097                           
  3098                           ;usb_device.c: 357: USBDeferOUTDataStagePackets = 0;
  3099  00117E  0E00               	movlw	0
  3100  001180  6E3E               	movwf	_USBDeferOUTDataStagePackets,c	;volatile
  3101                           
  3102                           ;usb_device.c: 358: USBBusIsSuspended = 0;
  3103  001182  0E00               	movlw	0
  3104  001184  6E3C               	movwf	_USBBusIsSuspended,c	;volatile
  3105                           
  3106                           ;usb_device.c: 362: for(i = 0; i < (uint8_t)(1+1u); i++)
  3107  001186  0E00               	movlw	0
  3108  001188  6E1A               	movwf	i2USBDeviceInit@i,c
  3109  00118A                     i2l3344:
  3110  00118A  0E01               	movlw	1
  3111  00118C  641A               	cpfsgt	i2USBDeviceInit@i,c
  3112  00118E  D001               	goto	i2l3348
  3113  001190  D02E               	goto	i2l3354
  3114  001192                     i2l3348:
  3115                           
  3116                           ;usb_device.c: 363: {
  3117                           ;usb_device.c: 364: pBDTEntryIn[i] = 0u;
  3118  001192  501A               	movf	i2USBDeviceInit@i,w,c
  3119  001194  0D02               	mullw	2
  3120  001196  0E68               	movlw	low _pBDTEntryIn
  3121  001198  24F3               	addwf	prodl,w,c
  3122  00119A  6ED9               	movwf	fsr2l,c
  3123  00119C  0E00               	movlw	high _pBDTEntryIn
  3124  00119E  20F4               	addwfc	prodh,w,c
  3125  0011A0  6EDA               	movwf	fsr2h,c
  3126  0011A2  0E00               	movlw	0
  3127  0011A4  6EDE               	movwf	postinc2,c
  3128  0011A6  0E00               	movlw	0
  3129  0011A8  6EDD               	movwf	postdec2,c
  3130                           
  3131                           ;usb_device.c: 365: pBDTEntryOut[i] = 0u;
  3132  0011AA  501A               	movf	i2USBDeviceInit@i,w,c
  3133  0011AC  0D02               	mullw	2
  3134  0011AE  0E6C               	movlw	low _pBDTEntryOut
  3135  0011B0  24F3               	addwf	prodl,w,c
  3136  0011B2  6ED9               	movwf	fsr2l,c
  3137  0011B4  0E00               	movlw	high _pBDTEntryOut
  3138  0011B6  20F4               	addwfc	prodh,w,c
  3139  0011B8  6EDA               	movwf	fsr2h,c
  3140  0011BA  0E00               	movlw	0
  3141  0011BC  6EDE               	movwf	postinc2,c
  3142  0011BE  0E00               	movlw	0
  3143  0011C0  6EDD               	movwf	postdec2,c
  3144                           
  3145                           ;usb_device.c: 366: ep_data_in[i].Val = 0u;
  3146  0011C2  501A               	movf	i2USBDeviceInit@i,w,c
  3147  0011C4  0D01               	mullw	1
  3148  0011C6  0E74               	movlw	low _ep_data_in
  3149  0011C8  24F3               	addwf	prodl,w,c
  3150  0011CA  6ED9               	movwf	fsr2l,c
  3151  0011CC  0E00               	movlw	high _ep_data_in
  3152  0011CE  20F4               	addwfc	prodh,w,c
  3153  0011D0  6EDA               	movwf	fsr2h,c
  3154  0011D2  0E00               	movlw	0
  3155  0011D4  6EDF               	movwf	indf2,c
  3156                           
  3157                           ;usb_device.c: 367: ep_data_out[i].Val = 0u;
  3158  0011D6  501A               	movf	i2USBDeviceInit@i,w,c
  3159  0011D8  0D01               	mullw	1
  3160  0011DA  0E76               	movlw	low _ep_data_out
  3161  0011DC  24F3               	addwf	prodl,w,c
  3162  0011DE  6ED9               	movwf	fsr2l,c
  3163  0011E0  0E00               	movlw	high _ep_data_out
  3164  0011E2  20F4               	addwfc	prodh,w,c
  3165  0011E4  6EDA               	movwf	fsr2h,c
  3166  0011E6  0E00               	movlw	0
  3167  0011E8  6EDF               	movwf	indf2,c
  3168  0011EA  2A1A               	incf	i2USBDeviceInit@i,f,c
  3169  0011EC  D7CE               	goto	i2l3344
  3170  0011EE                     i2l3354:
  3171                           
  3172                           ;usb_device.c: 368: }
  3173                           ;usb_device.c: 371: pBDTEntryIn[0] = (volatile BDT_ENTRY*)&BDT[2];
  3174  0011EE  0E08               	movlw	8
  3175  0011F0  0100               	movlb	0	; () banked
  3176  0011F2  6F68               	movwf	_pBDTEntryIn& (0+255),b
  3177  0011F4  0E04               	movlw	4
  3178  0011F6  0100               	movlb	0	; () banked
  3179  0011F8  6F69               	movwf	(_pBDTEntryIn+1)& (0+255),b
  3180                           
  3181                           ; BSR set to: 0
  3182                           ;usb_device.c: 373: UEP0 = 0x06|0x10;
  3183  0011FA  0E16               	movlw	22
  3184  0011FC  6E70               	movwf	3952,c	;volatile
  3185                           
  3186                           ; BSR set to: 0
  3187                           ;usb_device.c: 375: BDT[0].ADR = ((uint16_t)(&SetupPkt));
  3188  0011FE  0E04               	movlw	4
  3189  001200  0104               	movlb	4	; () banked
  3190  001202  6F03               	movwf	3,b	;volatile
  3191  001204  0E20               	movlw	32
  3192  001206  6F02               	movwf	2,b	;volatile
  3193                           
  3194                           ; BSR set to: 4
  3195                           ;usb_device.c: 376: BDT[0].CNT = 8;
  3196  001208  0E08               	movlw	8
  3197  00120A  0104               	movlb	4	; () banked
  3198  00120C  6F01               	movwf	1,b	;volatile
  3199                           
  3200                           ; BSR set to: 4
  3201                           ;usb_device.c: 377: BDT[0].STAT.Val = 0x00|0x04;
  3202  00120E  0E04               	movlw	4
  3203  001210  0104               	movlb	4	; () banked
  3204  001212  6F00               	movwf	0,b	;volatile
  3205                           
  3206                           ; BSR set to: 4
  3207                           ;usb_device.c: 378: BDT[0].STAT.Val |= 0x80;
  3208  001214  0104               	movlb	4	; () banked
  3209  001216  8F00               	bsf	0,7,b	;volatile
  3210                           
  3211                           ; BSR set to: 4
  3212                           ;usb_device.c: 381: USBActiveConfiguration = 0;
  3213  001218  0E00               	movlw	0
  3214  00121A  6E46               	movwf	_USBActiveConfiguration,c	;volatile
  3215                           
  3216                           ; BSR set to: 4
  3217                           ;usb_device.c: 384: USBDeviceState = DETACHED_STATE;
  3218  00121C  0E00               	movlw	0
  3219  00121E  0100               	movlb	0	; () banked
  3220  001220  6F78               	movwf	_USBDeviceState& (0+255),b	;volatile
  3221                           
  3222                           ; BSR set to: 0
  3223  001222  0012               	return		;funcret
  3224  001224                     __end_ofi2_USBDeviceInit:
  3225                           	opt stack 0
  3226                           pclatu	equ	0xFFB
  3227                           pclath	equ	0xFFA
  3228                           tblptru	equ	0xFF8
  3229                           tblptrh	equ	0xFF7
  3230                           tblptrl	equ	0xFF6
  3231                           tablat	equ	0xFF5
  3232                           prodh	equ	0xFF4
  3233                           prodl	equ	0xFF3
  3234                           intcon	equ	0xFF2
  3235                           postinc0	equ	0xFEE
  3236                           fsr0h	equ	0xFEA
  3237                           fsr0l	equ	0xFE9
  3238                           wreg	equ	0xFE8
  3239                           fsr1h	equ	0xFE2
  3240                           fsr1l	equ	0xFE1
  3241                           bsr	equ	0xFE0
  3242                           indf2	equ	0xFDF
  3243                           postinc2	equ	0xFDE
  3244                           postdec2	equ	0xFDD
  3245                           plusw2	equ	0xFDB
  3246                           fsr2h	equ	0xFDA
  3247                           fsr2l	equ	0xFD9
  3248                           status	equ	0xFD8
  3249                           
  3250 ;; *************** function _USBWakeFromSuspend *****************
  3251 ;; Defined at:
  3252 ;;		line 2302 in file "../src/usb/src/usb_device.c"
  3253 ;; Parameters:    Size  Location     Type
  3254 ;;		None
  3255 ;; Auto vars:     Size  Location     Type
  3256 ;;		None
  3257 ;; Return value:  Size  Location     Type
  3258 ;;		None               void
  3259 ;; Registers used:
  3260 ;;		wreg, fsr2l, fsr2h, status,2, status,0, prodl, prodh, cstack
  3261 ;; Tracked objects:
  3262 ;;		On entry : 0/0
  3263 ;;		On exit  : 0/0
  3264 ;;		Unchanged: 0/0
  3265 ;; Data sizes:     COMRAM   BANK0   BANK1   BANK2   BANK3   BANK4   BANK5   BANK6   BANK7
  3266 ;;      Params:         0       0       0       0       0       0       0       0       0
  3267 ;;      Locals:         0       0       0       0       0       0       0       0       0
  3268 ;;      Temps:          0       0       0       0       0       0       0       0       0
  3269 ;;      Totals:         0       0       0       0       0       0       0       0       0
  3270 ;;Total ram usage:        0 bytes
  3271 ;; Hardware stack levels used:    1
  3272 ;; Hardware stack levels required when called:    4
  3273 ;; This function calls:
  3274 ;;		_USER_USB_CALLBACK_EVENT_HANDLER
  3275 ;; This function is called by:
  3276 ;;		_USBDeviceTasks
  3277 ;; This function uses a non-reentrant model
  3278 ;;
  3279                           
  3280                           	psect	text15
  3281  00218E                     __ptext15:
  3282                           	opt stack 0
  3283  00218E                     _USBWakeFromSuspend:
  3284                           	opt stack 20
  3285                           
  3286                           ;usb_device.c: 2304: USBBusIsSuspended = 0;
  3287                           
  3288                           ; BSR set to: 0
  3289                           ;incstack = 0
  3290  00218E  0E00               	movlw	0
  3291  002190  6E3C               	movwf	_USBBusIsSuspended,c	;volatile
  3292                           
  3293                           ;usb_device.c: 2310: USER_USB_CALLBACK_EVENT_HANDLER(EVENT_RESUME,0,0);
  3294  002192  0E00               	movlw	0
  3295  002194  6E1F               	movwf	USER_USB_CALLBACK_EVENT_HANDLER@event+1,c
  3296  002196  0E74               	movlw	116
  3297  002198  6E1E               	movwf	USER_USB_CALLBACK_EVENT_HANDLER@event,c
  3298  00219A  0E00               	movlw	0
  3299  00219C  6E20               	movwf	USER_USB_CALLBACK_EVENT_HANDLER@pdata,c
  3300  00219E  0E00               	movlw	0
  3301  0021A0  6E21               	movwf	USER_USB_CALLBACK_EVENT_HANDLER@pdata+1,c
  3302  0021A2  0E00               	movlw	0
  3303  0021A4  6E23               	movwf	USER_USB_CALLBACK_EVENT_HANDLER@size+1,c
  3304  0021A6  0E00               	movlw	0
  3305  0021A8  6E22               	movwf	USER_USB_CALLBACK_EVENT_HANDLER@size,c
  3306  0021AA  EC37  F00F         	call	_USER_USB_CALLBACK_EVENT_HANDLER	;wreg free
  3307                           
  3308                           ;usb_device.c: 2317: UCONbits.SUSPND = 0;
  3309  0021AE  926D               	bcf	3949,1,c	;volatile
  3310                           
  3311                           ;usb_device.c: 2322: UIEbits.ACTVIE = 0;
  3312  0021B0  9469               	bcf	3945,2,c	;volatile
  3313                           
  3314                           ;usb_device.c: 2340: while(UIRbits.ACTVIF)
  3315  0021B2  D002               	goto	i2l3242
  3316  0021B4                     i2l3240:
  3317                           
  3318                           ;usb_device.c: 2342: {
  3319                           ;usb_device.c: 2343: (UIR &= 0xFB);
  3320  0021B4  9468               	bcf	3944,2,c	;volatile
  3321  0021B6  D000               	goto	i2l3242
  3322  0021B8                     i2l3242:
  3323  0021B8  B468               	btfsc	3944,2,c	;volatile
  3324  0021BA  D7FC               	goto	i2l3240
  3325  0021BC  0012               	return		;funcret
  3326  0021BE                     __end_of_USBWakeFromSuspend:
  3327                           	opt stack 0
  3328                           pclatu	equ	0xFFB
  3329                           pclath	equ	0xFFA
  3330                           tblptru	equ	0xFF8
  3331                           tblptrh	equ	0xFF7
  3332                           tblptrl	equ	0xFF6
  3333                           tablat	equ	0xFF5
  3334                           prodh	equ	0xFF4
  3335                           prodl	equ	0xFF3
  3336                           intcon	equ	0xFF2
  3337                           postinc0	equ	0xFEE
  3338                           fsr0h	equ	0xFEA
  3339                           fsr0l	equ	0xFE9
  3340                           wreg	equ	0xFE8
  3341                           fsr1h	equ	0xFE2
  3342                           fsr1l	equ	0xFE1
  3343                           bsr	equ	0xFE0
  3344                           indf2	equ	0xFDF
  3345                           postinc2	equ	0xFDE
  3346                           postdec2	equ	0xFDD
  3347                           plusw2	equ	0xFDB
  3348                           fsr2h	equ	0xFDA
  3349                           fsr2l	equ	0xFD9
  3350                           status	equ	0xFD8
  3351                           
  3352 ;; *************** function _USBSuspend *****************
  3353 ;; Defined at:
  3354 ;;		line 2245 in file "../src/usb/src/usb_device.c"
  3355 ;; Parameters:    Size  Location     Type
  3356 ;;		None
  3357 ;; Auto vars:     Size  Location     Type
  3358 ;;		None
  3359 ;; Return value:  Size  Location     Type
  3360 ;;		None               void
  3361 ;; Registers used:
  3362 ;;		wreg, fsr2l, fsr2h, status,2, status,0, prodl, prodh, cstack
  3363 ;; Tracked objects:
  3364 ;;		On entry : 0/0
  3365 ;;		On exit  : 0/0
  3366 ;;		Unchanged: 0/0
  3367 ;; Data sizes:     COMRAM   BANK0   BANK1   BANK2   BANK3   BANK4   BANK5   BANK6   BANK7
  3368 ;;      Params:         0       0       0       0       0       0       0       0       0
  3369 ;;      Locals:         0       0       0       0       0       0       0       0       0
  3370 ;;      Temps:          0       0       0       0       0       0       0       0       0
  3371 ;;      Totals:         0       0       0       0       0       0       0       0       0
  3372 ;;Total ram usage:        0 bytes
  3373 ;; Hardware stack levels used:    1
  3374 ;; Hardware stack levels required when called:    4
  3375 ;; This function calls:
  3376 ;;		_USER_USB_CALLBACK_EVENT_HANDLER
  3377 ;; This function is called by:
  3378 ;;		_USBDeviceTasks
  3379 ;; This function uses a non-reentrant model
  3380 ;;
  3381                           
  3382                           	psect	text16
  3383  002218                     __ptext16:
  3384                           	opt stack 0
  3385  002218                     _USBSuspend:
  3386                           	opt stack 20
  3387                           
  3388                           ;usb_device.c: 2270: UIEbits.ACTVIE = 1;
  3389                           
  3390                           ;incstack = 0
  3391  002218  8469               	bsf	3945,2,c	;volatile
  3392                           
  3393                           ;usb_device.c: 2271: (UIR &= 0xEF);
  3394  00221A  9868               	bcf	3944,4,c	;volatile
  3395                           
  3396                           ;usb_device.c: 2274: UCONbits.SUSPND = 1;
  3397  00221C  826D               	bsf	3949,1,c	;volatile
  3398                           
  3399                           ;usb_device.c: 2277: USBBusIsSuspended = 1;
  3400  00221E  0E01               	movlw	1
  3401  002220  6E3C               	movwf	_USBBusIsSuspended,c	;volatile
  3402                           
  3403                           ;usb_device.c: 2284: USER_USB_CALLBACK_EVENT_HANDLER(EVENT_SUSPEND,0,0);
  3404  002222  0E00               	movlw	0
  3405  002224  6E1F               	movwf	USER_USB_CALLBACK_EVENT_HANDLER@event+1,c
  3406  002226  0E75               	movlw	117
  3407  002228  6E1E               	movwf	USER_USB_CALLBACK_EVENT_HANDLER@event,c
  3408  00222A  0E00               	movlw	0
  3409  00222C  6E20               	movwf	USER_USB_CALLBACK_EVENT_HANDLER@pdata,c
  3410  00222E  0E00               	movlw	0
  3411  002230  6E21               	movwf	USER_USB_CALLBACK_EVENT_HANDLER@pdata+1,c
  3412  002232  0E00               	movlw	0
  3413  002234  6E23               	movwf	USER_USB_CALLBACK_EVENT_HANDLER@size+1,c
  3414  002236  0E00               	movlw	0
  3415  002238  6E22               	movwf	USER_USB_CALLBACK_EVENT_HANDLER@size,c
  3416  00223A  EC37  F00F         	call	_USER_USB_CALLBACK_EVENT_HANDLER	;wreg free
  3417  00223E  0012               	return		;funcret
  3418  002240                     __end_of_USBSuspend:
  3419                           	opt stack 0
  3420                           pclatu	equ	0xFFB
  3421                           pclath	equ	0xFFA
  3422                           tblptru	equ	0xFF8
  3423                           tblptrh	equ	0xFF7
  3424                           tblptrl	equ	0xFF6
  3425                           tablat	equ	0xFF5
  3426                           prodh	equ	0xFF4
  3427                           prodl	equ	0xFF3
  3428                           intcon	equ	0xFF2
  3429                           postinc0	equ	0xFEE
  3430                           fsr0h	equ	0xFEA
  3431                           fsr0l	equ	0xFE9
  3432                           wreg	equ	0xFE8
  3433                           fsr1h	equ	0xFE2
  3434                           fsr1l	equ	0xFE1
  3435                           bsr	equ	0xFE0
  3436                           indf2	equ	0xFDF
  3437                           postinc2	equ	0xFDE
  3438                           postdec2	equ	0xFDD
  3439                           plusw2	equ	0xFDB
  3440                           fsr2h	equ	0xFDA
  3441                           fsr2l	equ	0xFD9
  3442                           status	equ	0xFD8
  3443                           
  3444 ;; *************** function _USBStallHandler *****************
  3445 ;; Defined at:
  3446 ;;		line 2202 in file "../src/usb/src/usb_device.c"
  3447 ;; Parameters:    Size  Location     Type
  3448 ;;		None
  3449 ;; Auto vars:     Size  Location     Type
  3450 ;;		None
  3451 ;; Return value:  Size  Location     Type
  3452 ;;		None               void
  3453 ;; Registers used:
  3454 ;;		wreg, fsr2l, fsr2h, status,2, status,0
  3455 ;; Tracked objects:
  3456 ;;		On entry : 0/0
  3457 ;;		On exit  : 0/0
  3458 ;;		Unchanged: 0/0
  3459 ;; Data sizes:     COMRAM   BANK0   BANK1   BANK2   BANK3   BANK4   BANK5   BANK6   BANK7
  3460 ;;      Params:         0       0       0       0       0       0       0       0       0
  3461 ;;      Locals:         0       0       0       0       0       0       0       0       0
  3462 ;;      Temps:          1       0       0       0       0       0       0       0       0
  3463 ;;      Totals:         1       0       0       0       0       0       0       0       0
  3464 ;;Total ram usage:        1 bytes
  3465 ;; Hardware stack levels used:    1
  3466 ;; This function calls:
  3467 ;;		Nothing
  3468 ;; This function is called by:
  3469 ;;		_USBDeviceTasks
  3470 ;; This function uses a non-reentrant model
  3471 ;;
  3472                           
  3473                           	psect	text17
  3474  002034                     __ptext17:
  3475                           	opt stack 0
  3476  002034                     _USBStallHandler:
  3477                           	opt stack 24
  3478                           
  3479                           ;usb_device.c: 2214: if(UEP0bits.EPSTALL == 1)
  3480                           
  3481                           ;incstack = 0
  3482  002034  A070               	btfss	3952,0,c	;volatile
  3483  002036  D01E               	goto	i2l504
  3484                           
  3485                           ;usb_device.c: 2215: {
  3486                           ;usb_device.c: 2217: if((pBDTEntryEP0OutCurrent->STAT.Val == 0x80) && (pBDTEntryIn[0]->S
      +                          TAT.Val == (0x80|0x04)))
  3487  002038  C034  FFD9         	movff	_pBDTEntryEP0OutCurrent,fsr2l
  3488  00203C  C035  FFDA         	movff	_pBDTEntryEP0OutCurrent+1,fsr2h
  3489  002040  0E80               	movlw	128
  3490  002042  18DE               	xorwf	postinc2,w,c
  3491  002044  A4D8               	btfss	status,2,c
  3492  002046  D015               	goto	i2l3264
  3493  002048  C068  FFD9         	movff	_pBDTEntryIn,fsr2l
  3494  00204C  C069  FFDA         	movff	_pBDTEntryIn+1,fsr2h
  3495  002050  0E84               	movlw	132
  3496  002052  18DE               	xorwf	postinc2,w,c
  3497  002054  A4D8               	btfss	status,2,c
  3498  002056  D00D               	goto	i2l3264
  3499                           
  3500                           ;usb_device.c: 2218: {
  3501                           ;usb_device.c: 2220: pBDTEntryEP0OutCurrent->STAT.Val = 0x00|(0x08 & 0x08)|0x04;
  3502  002058  C034  FFD9         	movff	_pBDTEntryEP0OutCurrent,fsr2l
  3503  00205C  C035  FFDA         	movff	_pBDTEntryEP0OutCurrent+1,fsr2h
  3504  002060  0E0C               	movlw	12
  3505  002062  6EDF               	movwf	indf2,c
  3506                           
  3507                           ;usb_device.c: 2221: pBDTEntryEP0OutCurrent->STAT.Val |= 0x80;
  3508  002064  C034  FFD9         	movff	_pBDTEntryEP0OutCurrent,fsr2l
  3509  002068  C035  FFDA         	movff	_pBDTEntryEP0OutCurrent+1,fsr2h
  3510  00206C  0E00               	movlw	0
  3511  00206E  8EDB               	bsf	plusw2,7,c
  3512  002070  D000               	goto	i2l3264
  3513  002072                     i2l3264:
  3514                           
  3515                           ;usb_device.c: 2222: }
  3516                           ;usb_device.c: 2223: UEP0bits.EPSTALL = 0;
  3517  002072  9070               	bcf	3952,0,c	;volatile
  3518  002074                     i2l504:
  3519                           
  3520                           ;usb_device.c: 2224: }
  3521                           ;usb_device.c: 2226: (UIR &= 0xDF);
  3522  002074  9A68               	bcf	3944,5,c	;volatile
  3523  002076  0012               	return		;funcret
  3524  002078                     __end_of_USBStallHandler:
  3525                           	opt stack 0
  3526                           pclatu	equ	0xFFB
  3527                           pclath	equ	0xFFA
  3528                           tblptru	equ	0xFF8
  3529                           tblptrh	equ	0xFF7
  3530                           tblptrl	equ	0xFF6
  3531                           tablat	equ	0xFF5
  3532                           prodh	equ	0xFF4
  3533                           prodl	equ	0xFF3
  3534                           intcon	equ	0xFF2
  3535                           postinc0	equ	0xFEE
  3536                           fsr0h	equ	0xFEA
  3537                           fsr0l	equ	0xFE9
  3538                           wreg	equ	0xFE8
  3539                           fsr1h	equ	0xFE2
  3540                           fsr1l	equ	0xFE1
  3541                           bsr	equ	0xFE0
  3542                           indf2	equ	0xFDF
  3543                           postinc2	equ	0xFDE
  3544                           postdec2	equ	0xFDD
  3545                           plusw2	equ	0xFDB
  3546                           fsr2h	equ	0xFDA
  3547                           fsr2l	equ	0xFD9
  3548                           status	equ	0xFD8
  3549                           
  3550 ;; *************** function _USBCtrlEPService *****************
  3551 ;; Defined at:
  3552 ;;		line 2369 in file "../src/usb/src/usb_device.c"
  3553 ;; Parameters:    Size  Location     Type
  3554 ;;		None
  3555 ;; Auto vars:     Size  Location     Type
  3556 ;;  setup_cnt       1   45[COMRAM] unsigned char 
  3557 ;; Return value:  Size  Location     Type
  3558 ;;		None               void
  3559 ;; Registers used:
  3560 ;;		wreg, fsr1l, fsr1h, fsr2l, fsr2h, status,2, status,0, tblptrl, tblptrh, tblptru, prodl, prodh, cstack
  3561 ;; Tracked objects:
  3562 ;;		On entry : 0/0
  3563 ;;		On exit  : 0/0
  3564 ;;		Unchanged: 0/0
  3565 ;; Data sizes:     COMRAM   BANK0   BANK1   BANK2   BANK3   BANK4   BANK5   BANK6   BANK7
  3566 ;;      Params:         0       0       0       0       0       0       0       0       0
  3567 ;;      Locals:         1       0       0       0       0       0       0       0       0
  3568 ;;      Temps:          2       0       0       0       0       0       0       0       0
  3569 ;;      Totals:         3       0       0       0       0       0       0       0       0
  3570 ;;Total ram usage:        3 bytes
  3571 ;; Hardware stack levels used:    1
  3572 ;; Hardware stack levels required when called:    7
  3573 ;; This function calls:
  3574 ;;		_USBCtrlTrfInHandler
  3575 ;;		_USBCtrlTrfOutHandler
  3576 ;;		_USBCtrlTrfSetupHandler
  3577 ;; This function is called by:
  3578 ;;		_USBDeviceTasks
  3579 ;; This function uses a non-reentrant model
  3580 ;;
  3581                           
  3582                           	psect	text18
  3583  0018DC                     __ptext18:
  3584                           	opt stack 0
  3585  0018DC                     _USBCtrlEPService:
  3586                           	opt stack 17
  3587                           
  3588                           ;usb_device.c: 2375: USBStatusStageTimeoutCounter = (uint8_t)45;
  3589                           
  3590                           ;incstack = 0
  3591  0018DC  0E2D               	movlw	45
  3592  0018DE  6E42               	movwf	_USBStatusStageTimeoutCounter,c	;volatile
  3593                           
  3594                           ;usb_device.c: 2379: if((USTATcopy.Val & ~0x02) == 0x00)
  3595  0018E0  C048  F02C         	movff	_USTATcopy,??_USBCtrlEPService	;volatile
  3596  0018E4  0EFD               	movlw	253
  3597  0018E6  162C               	andwf	??_USBCtrlEPService,f,c
  3598  0018E8  A4D8               	btfss	status,2,c
  3599  0018EA  D057               	goto	i2l3298
  3600                           
  3601                           ;usb_device.c: 2380: {
  3602                           ;usb_device.c: 2383: pBDTEntryEP0OutCurrent = (volatile BDT_ENTRY*)&BDT[(USTATcopy.Val &
      +                           0x7E)>>1];
  3603  0018EC  C048  F02C         	movff	_USTATcopy,??_USBCtrlEPService	;volatile
  3604  0018F0  90D8               	bcf	status,0,c
  3605  0018F2  322C               	rrcf	??_USBCtrlEPService,f,c
  3606  0018F4  0E3F               	movlw	63
  3607  0018F6  162C               	andwf	??_USBCtrlEPService,f,c
  3608  0018F8  502C               	movf	??_USBCtrlEPService,w,c
  3609  0018FA  0D04               	mullw	4
  3610  0018FC  0E00               	movlw	0
  3611  0018FE  24F3               	addwf	prodl,w,c
  3612  001900  6E34               	movwf	_pBDTEntryEP0OutCurrent,c
  3613  001902  0E04               	movlw	4
  3614  001904  20F4               	addwfc	prodh,w,c
  3615  001906  6E35               	movwf	_pBDTEntryEP0OutCurrent+1,c
  3616                           
  3617                           ;usb_device.c: 2391: pBDTEntryEP0OutNext = pBDTEntryEP0OutCurrent;
  3618  001908  C034  F036         	movff	_pBDTEntryEP0OutCurrent,_pBDTEntryEP0OutNext
  3619  00190C  C035  F037         	movff	_pBDTEntryEP0OutCurrent+1,_pBDTEntryEP0OutNext+1
  3620                           
  3621                           ;usb_device.c: 2393: ((uint8_t_VAL*)&pBDTEntryEP0OutNext)->Val ^= 0x0004;
  3622  001910  0E04               	movlw	4
  3623  001912  1A36               	xorwf	_pBDTEntryEP0OutNext,f,c
  3624                           
  3625                           ;usb_device.c: 2396: if(pBDTEntryEP0OutCurrent->STAT.PID == 0xD)
  3626  001914  C034  FFD9         	movff	_pBDTEntryEP0OutCurrent,fsr2l
  3627  001918  C035  FFDA         	movff	_pBDTEntryEP0OutCurrent+1,fsr2h
  3628  00191C  30DF               	rrcf	indf2,w,c
  3629  00191E  32E8               	rrcf	wreg,f,c
  3630  001920  0B0F               	andlw	15
  3631  001922  0A0D               	xorlw	13
  3632  001924  A4D8               	btfss	status,2,c
  3633  001926  D036               	goto	i2l3296
  3634                           
  3635                           ;usb_device.c: 2397: {
  3636                           ;usb_device.c: 2398: unsigned char setup_cnt;
  3637                           ;usb_device.c: 2404: for(setup_cnt = 0; setup_cnt < 8u; setup_cnt++)
  3638  001928  0E00               	movlw	0
  3639  00192A  6E2E               	movwf	USBCtrlEPService@setup_cnt,c
  3640  00192C                     i2l3280:
  3641  00192C  0E07               	movlw	7
  3642  00192E  642E               	cpfsgt	USBCtrlEPService@setup_cnt,c
  3643  001930  D001               	goto	i2l3284
  3644  001932  D023               	goto	i2l3292
  3645  001934                     i2l3284:
  3646                           
  3647                           ;usb_device.c: 2405: {
  3648                           ;usb_device.c: 2406: *(uint8_t*)((uint8_t*)&SetupPkt + setup_cnt) = *(uint8_t*)((void *)
      +                          (pBDTEntryEP0OutCurrent->ADR));
  3649  001934  EE20 F002          	lfsr	2,2
  3650  001938  5034               	movf	_pBDTEntryEP0OutCurrent,w,c
  3651  00193A  26D9               	addwf	fsr2l,f,c
  3652  00193C  5035               	movf	_pBDTEntryEP0OutCurrent+1,w,c
  3653  00193E  22DA               	addwfc	fsr2h,f,c
  3654  001940  CFDE F02C          	movff	postinc2,??_USBCtrlEPService
  3655  001944  CFDD F02D          	movff	postdec2,??_USBCtrlEPService+1
  3656  001948  C02C  FFD9         	movff	??_USBCtrlEPService,fsr2l
  3657  00194C  C02D  FFDA         	movff	??_USBCtrlEPService+1,fsr2h
  3658  001950  502E               	movf	USBCtrlEPService@setup_cnt,w,c
  3659  001952  0D01               	mullw	1
  3660  001954  0E20               	movlw	32
  3661  001956  24F3               	addwf	prodl,w,c
  3662  001958  6EE1               	movwf	fsr1l,c
  3663  00195A  0E04               	movlw	4
  3664  00195C  20F4               	addwfc	prodh,w,c
  3665  00195E  6EE2               	movwf	fsr1h,c
  3666  001960  CFDF FFE7          	movff	indf2,indf1
  3667                           
  3668                           ;usb_device.c: 2407: pBDTEntryEP0OutCurrent->ADR++;
  3669  001964  EE20 F002          	lfsr	2,2
  3670  001968  5034               	movf	_pBDTEntryEP0OutCurrent,w,c
  3671  00196A  26D9               	addwf	fsr2l,f,c
  3672  00196C  5035               	movf	_pBDTEntryEP0OutCurrent+1,w,c
  3673  00196E  22DA               	addwfc	fsr2h,f,c
  3674  001970  2ADE               	incf	postinc2,f,c
  3675  001972  0E00               	movlw	0
  3676  001974  22DD               	addwfc	postdec2,f,c
  3677  001976  2A2E               	incf	USBCtrlEPService@setup_cnt,f,c
  3678  001978  D7D9               	goto	i2l3280
  3679  00197A                     i2l3292:
  3680                           
  3681                           ;usb_device.c: 2408: }
  3682                           ;usb_device.c: 2409: pBDTEntryEP0OutCurrent->ADR = ((uint16_t)(&SetupPkt));
  3683  00197A  EE20 F002          	lfsr	2,2
  3684  00197E  5034               	movf	_pBDTEntryEP0OutCurrent,w,c
  3685  001980  26D9               	addwf	fsr2l,f,c
  3686  001982  5035               	movf	_pBDTEntryEP0OutCurrent+1,w,c
  3687  001984  22DA               	addwfc	fsr2h,f,c
  3688  001986  0E20               	movlw	32
  3689  001988  6EDE               	movwf	postinc2,c
  3690  00198A  0E04               	movlw	4
  3691  00198C  6EDD               	movwf	postdec2,c
  3692                           
  3693                           ;usb_device.c: 2412: USBCtrlTrfSetupHandler();
  3694  00198E  ECF0  F00E         	call	_USBCtrlTrfSetupHandler	;wreg free
  3695                           
  3696                           ;usb_device.c: 2413: }
  3697  001992  D00B               	goto	i2l525
  3698  001994                     i2l3296:
  3699                           
  3700                           ;usb_device.c: 2414: else
  3701                           ;usb_device.c: 2415: {
  3702                           ;usb_device.c: 2417: USBCtrlTrfOutHandler();
  3703  001994  ECEB  F00F         	call	_USBCtrlTrfOutHandler	;wreg free
  3704                           
  3705                           ;usb_device.c: 2418: }
  3706                           ;usb_device.c: 2419: }
  3707  001998  D008               	goto	i2l525
  3708  00199A                     i2l3298:
  3709                           
  3710                           ;usb_device.c: 2420: else if((USTATcopy.Val & ~0x02) == 0x04)
  3711  00199A  5048               	movf	_USTATcopy,w,c	;volatile
  3712  00199C  0BFD               	andlw	253
  3713  00199E  0A04               	xorlw	4
  3714  0019A0  A4D8               	btfss	status,2,c
  3715  0019A2  D003               	goto	i2l525
  3716                           
  3717                           ;usb_device.c: 2421: {
  3718                           ;usb_device.c: 2424: USBCtrlTrfInHandler();
  3719  0019A4  ECFC  F00D         	call	_USBCtrlTrfInHandler	;wreg free
  3720  0019A8  D000               	goto	i2l525
  3721  0019AA                     i2l525:
  3722  0019AA  0012               	return		;funcret
  3723  0019AC                     __end_of_USBCtrlEPService:
  3724                           	opt stack 0
  3725                           pclatu	equ	0xFFB
  3726                           pclath	equ	0xFFA
  3727                           tblptru	equ	0xFF8
  3728                           tblptrh	equ	0xFF7
  3729                           tblptrl	equ	0xFF6
  3730                           tablat	equ	0xFF5
  3731                           prodh	equ	0xFF4
  3732                           prodl	equ	0xFF3
  3733                           intcon	equ	0xFF2
  3734                           postinc0	equ	0xFEE
  3735                           fsr0h	equ	0xFEA
  3736                           fsr0l	equ	0xFE9
  3737                           wreg	equ	0xFE8
  3738                           indf1	equ	0xFE7
  3739                           fsr1h	equ	0xFE2
  3740                           fsr1l	equ	0xFE1
  3741                           bsr	equ	0xFE0
  3742                           indf2	equ	0xFDF
  3743                           postinc2	equ	0xFDE
  3744                           postdec2	equ	0xFDD
  3745                           plusw2	equ	0xFDB
  3746                           fsr2h	equ	0xFDA
  3747                           fsr2l	equ	0xFD9
  3748                           status	equ	0xFD8
  3749                           
  3750 ;; *************** function _USBCtrlTrfSetupHandler *****************
  3751 ;; Defined at:
  3752 ;;		line 2469 in file "../src/usb/src/usb_device.c"
  3753 ;; Parameters:    Size  Location     Type
  3754 ;;		None
  3755 ;; Auto vars:     Size  Location     Type
  3756 ;;		None
  3757 ;; Return value:  Size  Location     Type
  3758 ;;		None               void
  3759 ;; Registers used:
  3760 ;;		wreg, fsr1l, fsr1h, fsr2l, fsr2h, status,2, status,0, tblptrl, tblptrh, tblptru, prodl, prodh, cstack
  3761 ;; Tracked objects:
  3762 ;;		On entry : 0/0
  3763 ;;		On exit  : 0/0
  3764 ;;		Unchanged: 0/0
  3765 ;; Data sizes:     COMRAM   BANK0   BANK1   BANK2   BANK3   BANK4   BANK5   BANK6   BANK7
  3766 ;;      Params:         0       0       0       0       0       0       0       0       0
  3767 ;;      Locals:         0       0       0       0       0       0       0       0       0
  3768 ;;      Temps:          0       0       0       0       0       0       0       0       0
  3769 ;;      Totals:         0       0       0       0       0       0       0       0       0
  3770 ;;Total ram usage:        0 bytes
  3771 ;; Hardware stack levels used:    1
  3772 ;; Hardware stack levels required when called:    6
  3773 ;; This function calls:
  3774 ;;		_USBCheckStdRequest
  3775 ;;		_USBCtrlEPServiceComplete
  3776 ;;		_USER_USB_CALLBACK_EVENT_HANDLER
  3777 ;; This function is called by:
  3778 ;;		_USBCtrlEPService
  3779 ;; This function uses a non-reentrant model
  3780 ;;
  3781                           
  3782                           	psect	text19
  3783  001DE0                     __ptext19:
  3784                           	opt stack 0
  3785  001DE0                     _USBCtrlTrfSetupHandler:
  3786                           	opt stack 17
  3787                           
  3788                           ;usb_device.c: 2474: shortPacketStatus = 0;
  3789                           
  3790                           ;incstack = 0
  3791  001DE0  0E00               	movlw	0
  3792  001DE2  6E45               	movwf	_shortPacketStatus,c	;volatile
  3793                           
  3794                           ;usb_device.c: 2475: USBDeferStatusStagePacket = 0;
  3795  001DE4  0E00               	movlw	0
  3796  001DE6  6E3F               	movwf	_USBDeferStatusStagePacket,c	;volatile
  3797                           
  3798                           ;usb_device.c: 2476: USBDeferINDataStagePackets = 0;
  3799  001DE8  0E00               	movlw	0
  3800  001DEA  6E3D               	movwf	_USBDeferINDataStagePackets,c	;volatile
  3801                           
  3802                           ;usb_device.c: 2477: USBDeferOUTDataStagePackets = 0;
  3803  001DEC  0E00               	movlw	0
  3804  001DEE  6E3E               	movwf	_USBDeferOUTDataStagePackets,c	;volatile
  3805                           
  3806                           ;usb_device.c: 2478: BothEP0OutUOWNsSet = 0;
  3807  001DF0  0E00               	movlw	0
  3808  001DF2  6E3A               	movwf	_BothEP0OutUOWNsSet,c	;volatile
  3809                           
  3810                           ;usb_device.c: 2479: controlTransferState = 0;
  3811  001DF4  0E00               	movlw	0
  3812  001DF6  6E43               	movwf	_controlTransferState,c	;volatile
  3813                           
  3814                           ;usb_device.c: 2488: pBDTEntryIn[0]->STAT.Val &= ~(0x80);
  3815  001DF8  C068  FFD9         	movff	_pBDTEntryIn,fsr2l
  3816  001DFC  C069  FFDA         	movff	_pBDTEntryIn+1,fsr2h
  3817  001E00  0E7F               	movlw	127
  3818  001E02  16DF               	andwf	indf2,f,c
  3819                           
  3820                           ;usb_device.c: 2489: ((uint8_t_VAL*)&pBDTEntryIn[0])->Val ^= 0x0004;
  3821  001E04  0E04               	movlw	4
  3822  001E06  0100               	movlb	0	; () banked
  3823  001E08  1B68               	xorwf	_pBDTEntryIn& (0+255),f,b
  3824                           
  3825                           ; BSR set to: 0
  3826                           ;usb_device.c: 2490: pBDTEntryIn[0]->STAT.Val &= ~(0x80);
  3827  001E0A  C068  FFD9         	movff	_pBDTEntryIn,fsr2l
  3828  001E0E  C069  FFDA         	movff	_pBDTEntryIn+1,fsr2h
  3829  001E12  0E7F               	movlw	127
  3830  001E14  16DF               	andwf	indf2,f,c
  3831                           
  3832                           ; BSR set to: 0
  3833                           ;usb_device.c: 2491: ((uint8_t_VAL*)&pBDTEntryIn[0])->Val ^= 0x0004;
  3834  001E16  0E04               	movlw	4
  3835  001E18  0100               	movlb	0	; () banked
  3836  001E1A  1B68               	xorwf	_pBDTEntryIn& (0+255),f,b
  3837                           
  3838                           ; BSR set to: 0
  3839                           ;usb_device.c: 2492: pBDTEntryEP0OutNext->STAT.Val &= ~(0x80);
  3840  001E1C  C036  FFD9         	movff	_pBDTEntryEP0OutNext,fsr2l
  3841  001E20  C037  FFDA         	movff	_pBDTEntryEP0OutNext+1,fsr2h
  3842  001E24  0E7F               	movlw	127
  3843  001E26  16DF               	andwf	indf2,f,c
  3844                           
  3845                           ; BSR set to: 0
  3846                           ;usb_device.c: 2494: inPipes[0].info.Val = 0;
  3847  001E28  0E00               	movlw	0
  3848  001E2A  0100               	movlb	0	; () banked
  3849  001E2C  6F7D               	movwf	(_inPipes+3)& (0+255),b	;volatile
  3850                           
  3851                           ; BSR set to: 0
  3852                           ;usb_device.c: 2495: inPipes[0].wCount.Val = 0;
  3853  001E2E  0E00               	movlw	0
  3854  001E30  0100               	movlb	0	; () banked
  3855  001E32  6F7F               	movwf	(_inPipes+5)& (0+255),b	;volatile
  3856  001E34  0E00               	movlw	0
  3857  001E36  6F7E               	movwf	(_inPipes+4)& (0+255),b	;volatile
  3858                           
  3859                           ; BSR set to: 0
  3860                           ;usb_device.c: 2496: outPipes[0].info.Val = 0;
  3861  001E38  0E00               	movlw	0
  3862  001E3A  0100               	movlb	0	; () banked
  3863  001E3C  6F63               	movwf	(_outPipes+3)& (0+255),b	;volatile
  3864                           
  3865                           ; BSR set to: 0
  3866                           ;usb_device.c: 2497: outPipes[0].wCount.Val = 0;
  3867  001E3E  0E00               	movlw	0
  3868  001E40  0100               	movlb	0	; () banked
  3869  001E42  6F65               	movwf	(_outPipes+5)& (0+255),b	;volatile
  3870  001E44  0E00               	movlw	0
  3871  001E46  6F64               	movwf	(_outPipes+4)& (0+255),b	;volatile
  3872                           
  3873                           ; BSR set to: 0
  3874                           ;usb_device.c: 2503: USBCheckStdRequest();
  3875  001E48  ECA3  F00A         	call	_USBCheckStdRequest	;wreg free
  3876                           
  3877                           ;usb_device.c: 2504: USER_USB_CALLBACK_EVENT_HANDLER(EVENT_EP0_REQUEST,0,0);
  3878  001E4C  0E00               	movlw	0
  3879  001E4E  6E1F               	movwf	USER_USB_CALLBACK_EVENT_HANDLER@event+1,c
  3880  001E50  0E03               	movlw	3
  3881  001E52  6E1E               	movwf	USER_USB_CALLBACK_EVENT_HANDLER@event,c
  3882  001E54  0E00               	movlw	0
  3883  001E56  6E20               	movwf	USER_USB_CALLBACK_EVENT_HANDLER@pdata,c
  3884  001E58  0E00               	movlw	0
  3885  001E5A  6E21               	movwf	USER_USB_CALLBACK_EVENT_HANDLER@pdata+1,c
  3886  001E5C  0E00               	movlw	0
  3887  001E5E  6E23               	movwf	USER_USB_CALLBACK_EVENT_HANDLER@size+1,c
  3888  001E60  0E00               	movlw	0
  3889  001E62  6E22               	movwf	USER_USB_CALLBACK_EVENT_HANDLER@size,c
  3890  001E64  EC37  F00F         	call	_USER_USB_CALLBACK_EVENT_HANDLER	;wreg free
  3891                           
  3892                           ;usb_device.c: 2517: USBCtrlEPServiceComplete();
  3893  001E68  EC24  F00A         	call	_USBCtrlEPServiceComplete	;wreg free
  3894  001E6C  0012               	return		;funcret
  3895  001E6E                     __end_of_USBCtrlTrfSetupHandler:
  3896                           	opt stack 0
  3897                           pclatu	equ	0xFFB
  3898                           pclath	equ	0xFFA
  3899                           tblptru	equ	0xFF8
  3900                           tblptrh	equ	0xFF7
  3901                           tblptrl	equ	0xFF6
  3902                           tablat	equ	0xFF5
  3903                           prodh	equ	0xFF4
  3904                           prodl	equ	0xFF3
  3905                           intcon	equ	0xFF2
  3906                           postinc0	equ	0xFEE
  3907                           fsr0h	equ	0xFEA
  3908                           fsr0l	equ	0xFE9
  3909                           wreg	equ	0xFE8
  3910                           indf1	equ	0xFE7
  3911                           fsr1h	equ	0xFE2
  3912                           fsr1l	equ	0xFE1
  3913                           bsr	equ	0xFE0
  3914                           indf2	equ	0xFDF
  3915                           postinc2	equ	0xFDE
  3916                           postdec2	equ	0xFDD
  3917                           plusw2	equ	0xFDB
  3918                           fsr2h	equ	0xFDA
  3919                           fsr2l	equ	0xFD9
  3920                           status	equ	0xFD8
  3921                           
  3922 ;; *************** function _USBCtrlEPServiceComplete *****************
  3923 ;; Defined at:
  3924 ;;		line 1616 in file "../src/usb/src/usb_device.c"
  3925 ;; Parameters:    Size  Location     Type
  3926 ;;		None
  3927 ;; Auto vars:     Size  Location     Type
  3928 ;;		None
  3929 ;; Return value:  Size  Location     Type
  3930 ;;		None               void
  3931 ;; Registers used:
  3932 ;;		wreg, fsr1l, fsr1h, fsr2l, fsr2h, status,2, status,0, tblptrl, tblptrh, tblptru, cstack
  3933 ;; Tracked objects:
  3934 ;;		On entry : 0/0
  3935 ;;		On exit  : 0/0
  3936 ;;		Unchanged: 0/0
  3937 ;; Data sizes:     COMRAM   BANK0   BANK1   BANK2   BANK3   BANK4   BANK5   BANK6   BANK7
  3938 ;;      Params:         0       0       0       0       0       0       0       0       0
  3939 ;;      Locals:         0       0       0       0       0       0       0       0       0
  3940 ;;      Temps:          0       0       0       0       0       0       0       0       0
  3941 ;;      Totals:         0       0       0       0       0       0       0       0       0
  3942 ;;Total ram usage:        0 bytes
  3943 ;; Hardware stack levels used:    1
  3944 ;; Hardware stack levels required when called:    2
  3945 ;; This function calls:
  3946 ;;		_USBCtrlEPAllowDataStage
  3947 ;;		_USBCtrlEPAllowStatusStage
  3948 ;; This function is called by:
  3949 ;;		_USBCtrlTrfSetupHandler
  3950 ;; This function uses a non-reentrant model
  3951 ;;
  3952                           
  3953                           	psect	text20
  3954  001448                     __ptext20:
  3955                           	opt stack 0
  3956  001448                     _USBCtrlEPServiceComplete:
  3957                           	opt stack 20
  3958                           
  3959                           ;usb_device.c: 1622: UCONbits.PKTDIS = 0;
  3960                           
  3961                           ;incstack = 0
  3962  001448  986D               	bcf	3949,4,c	;volatile
  3963                           
  3964                           ;usb_device.c: 1628: if(inPipes[0].info.bits.busy == 0)
  3965  00144A  0100               	movlb	0	; () banked
  3966  00144C  BF7D               	btfsc	(_inPipes+3)& (0+255),7,b	;volatile
  3967  00144E  D03B               	goto	i2l428
  3968                           
  3969                           ; BSR set to: 0
  3970                           ;usb_device.c: 1629: {
  3971                           ;usb_device.c: 1630: if(outPipes[0].info.bits.busy == 1)
  3972  001450  0100               	movlb	0	; () banked
  3973  001452  AF63               	btfss	(_outPipes+3)& (0+255),7,b	;volatile
  3974  001454  D00D               	goto	i2l2974
  3975                           
  3976                           ; BSR set to: 0
  3977                           ;usb_device.c: 1631: {
  3978                           ;usb_device.c: 1632: controlTransferState = 2;
  3979  001456  0E02               	movlw	2
  3980  001458  6E43               	movwf	_controlTransferState,c	;volatile
  3981                           
  3982                           ;usb_device.c: 1643: if(USBDeferOUTDataStagePackets == 0)
  3983  00145A  503E               	movf	_USBDeferOUTDataStagePackets,w,c	;volatile
  3984  00145C  A4D8               	btfss	status,2,c
  3985  00145E  D003               	goto	i2l2970
  3986                           
  3987                           ; BSR set to: 0
  3988                           ;usb_device.c: 1644: {
  3989                           ;usb_device.c: 1645: USBCtrlEPAllowDataStage();
  3990  001460  EC56  F00E         	call	_USBCtrlEPAllowDataStage	;wreg free
  3991  001464  D000               	goto	i2l2970
  3992  001466                     i2l2970:
  3993                           
  3994                           ;usb_device.c: 1646: }
  3995                           ;usb_device.c: 1650: USBStatusStageEnabledFlag2 = 0;
  3996  001466  0E00               	movlw	0
  3997  001468  6E41               	movwf	_USBStatusStageEnabledFlag2,c	;volatile
  3998                           
  3999                           ;usb_device.c: 1651: USBStatusStageEnabledFlag1 = 0;
  4000  00146A  0E00               	movlw	0
  4001  00146C  6E40               	movwf	_USBStatusStageEnabledFlag1,c	;volatile
  4002                           
  4003                           ;usb_device.c: 1652: }
  4004  00146E  D06A               	goto	i2l438
  4005  001470                     i2l2974:
  4006                           
  4007                           ;usb_device.c: 1653: else
  4008                           ;usb_device.c: 1654: {
  4009                           ;usb_device.c: 1659: pBDTEntryEP0OutNext->CNT = 8;
  4010  001470  EE20 F001          	lfsr	2,1
  4011  001474  5036               	movf	_pBDTEntryEP0OutNext,w,c
  4012  001476  26D9               	addwf	fsr2l,f,c
  4013  001478  5037               	movf	_pBDTEntryEP0OutNext+1,w,c
  4014  00147A  22DA               	addwfc	fsr2h,f,c
  4015  00147C  0E08               	movlw	8
  4016  00147E  6EDF               	movwf	indf2,c
  4017                           
  4018                           ;usb_device.c: 1660: pBDTEntryEP0OutNext->ADR = ((uint16_t)(&SetupPkt));
  4019  001480  EE20 F002          	lfsr	2,2
  4020  001484  5036               	movf	_pBDTEntryEP0OutNext,w,c
  4021  001486  26D9               	addwf	fsr2l,f,c
  4022  001488  5037               	movf	_pBDTEntryEP0OutNext+1,w,c
  4023  00148A  22DA               	addwfc	fsr2h,f,c
  4024  00148C  0E20               	movlw	32
  4025  00148E  6EDE               	movwf	postinc2,c
  4026  001490  0E04               	movlw	4
  4027  001492  6EDD               	movwf	postdec2,c
  4028                           
  4029                           ;usb_device.c: 1661: pBDTEntryEP0OutNext->STAT.Val = 0x00|(0x08 & 0x08)|0x04;
  4030  001494  C036  FFD9         	movff	_pBDTEntryEP0OutNext,fsr2l
  4031  001498  C037  FFDA         	movff	_pBDTEntryEP0OutNext+1,fsr2h
  4032  00149C  0E0C               	movlw	12
  4033  00149E  6EDF               	movwf	indf2,c
  4034                           
  4035                           ;usb_device.c: 1662: pBDTEntryEP0OutNext->STAT.Val |= 0x80;
  4036  0014A0  C036  FFD9         	movff	_pBDTEntryEP0OutNext,fsr2l
  4037  0014A4  C037  FFDA         	movff	_pBDTEntryEP0OutNext+1,fsr2h
  4038  0014A8  0E00               	movlw	0
  4039  0014AA  8EDB               	bsf	plusw2,7,c
  4040                           
  4041                           ;usb_device.c: 1663: pBDTEntryIn[0]->STAT.Val = 0x04;
  4042  0014AC  C068  FFD9         	movff	_pBDTEntryIn,fsr2l
  4043  0014B0  C069  FFDA         	movff	_pBDTEntryIn+1,fsr2h
  4044  0014B4  0E04               	movlw	4
  4045  0014B6  6EDF               	movwf	indf2,c
  4046                           
  4047                           ;usb_device.c: 1664: pBDTEntryIn[0]->STAT.Val |= 0x80;
  4048  0014B8  C068  FFD9         	movff	_pBDTEntryIn,fsr2l
  4049  0014BC  C069  FFDA         	movff	_pBDTEntryIn+1,fsr2h
  4050  0014C0  0E00               	movlw	0
  4051  0014C2  8EDB               	bsf	plusw2,7,c
  4052                           
  4053                           ;usb_device.c: 1665: }
  4054                           ;usb_device.c: 1666: }
  4055  0014C4  D03F               	goto	i2l438
  4056  0014C6                     i2l428:
  4057                           
  4058                           ; BSR set to: 0
  4059                           ;usb_device.c: 1667: else
  4060                           ;usb_device.c: 1668: {
  4061                           ;usb_device.c: 1669: if(SetupPkt.DataDir == (0x80>>7))
  4062  0014C6  0104               	movlb	4	; () banked
  4063  0014C8  AF20               	btfss	32,7,b	;volatile
  4064  0014CA  D012               	goto	i2l2994
  4065                           
  4066                           ; BSR set to: 4
  4067                           ;usb_device.c: 1670: {
  4068                           ;usb_device.c: 1671: controlTransferState = 1;
  4069  0014CC  0E01               	movlw	1
  4070  0014CE  6E43               	movwf	_controlTransferState,c	;volatile
  4071                           
  4072                           ;usb_device.c: 1685: if(USBDeferINDataStagePackets == 0)
  4073  0014D0  503D               	movf	_USBDeferINDataStagePackets,w,c	;volatile
  4074  0014D2  A4D8               	btfss	status,2,c
  4075  0014D4  D003               	goto	i2l2986
  4076                           
  4077                           ; BSR set to: 4
  4078                           ;usb_device.c: 1686: {
  4079                           ;usb_device.c: 1687: USBCtrlEPAllowDataStage();
  4080  0014D6  EC56  F00E         	call	_USBCtrlEPAllowDataStage	;wreg free
  4081  0014DA  D000               	goto	i2l2986
  4082  0014DC                     i2l2986:
  4083                           
  4084                           ;usb_device.c: 1688: }
  4085                           ;usb_device.c: 1710: USBStatusStageEnabledFlag2 = 0;
  4086  0014DC  0E00               	movlw	0
  4087  0014DE  6E41               	movwf	_USBStatusStageEnabledFlag2,c	;volatile
  4088                           
  4089                           ;usb_device.c: 1711: USBStatusStageEnabledFlag1 = 0;
  4090  0014E0  0E00               	movlw	0
  4091  0014E2  6E40               	movwf	_USBStatusStageEnabledFlag1,c	;volatile
  4092                           
  4093                           ;usb_device.c: 1712: if(USBDeferStatusStagePacket == 0)
  4094  0014E4  503F               	movf	_USBDeferStatusStagePacket,w,c	;volatile
  4095  0014E6  A4D8               	btfss	status,2,c
  4096  0014E8  D02D               	goto	i2l438
  4097                           
  4098                           ;usb_device.c: 1713: {
  4099                           ;usb_device.c: 1714: USBCtrlEPAllowStatusStage();
  4100  0014EA  EC39  F00D         	call	_USBCtrlEPAllowStatusStage	;wreg free
  4101                           
  4102                           ;usb_device.c: 1715: }
  4103                           ;usb_device.c: 1716: }
  4104  0014EE  D02A               	goto	i2l438
  4105  0014F0                     i2l2994:
  4106                           
  4107                           ;usb_device.c: 1717: else
  4108                           ;usb_device.c: 1718: {
  4109                           ;usb_device.c: 1729: controlTransferState = 2;
  4110  0014F0  0E02               	movlw	2
  4111  0014F2  6E43               	movwf	_controlTransferState,c	;volatile
  4112                           
  4113                           ;usb_device.c: 1732: pBDTEntryEP0OutNext->CNT = 8;
  4114  0014F4  EE20 F001          	lfsr	2,1
  4115  0014F8  5036               	movf	_pBDTEntryEP0OutNext,w,c
  4116  0014FA  26D9               	addwf	fsr2l,f,c
  4117  0014FC  5037               	movf	_pBDTEntryEP0OutNext+1,w,c
  4118  0014FE  22DA               	addwfc	fsr2h,f,c
  4119  001500  0E08               	movlw	8
  4120  001502  6EDF               	movwf	indf2,c
  4121                           
  4122                           ;usb_device.c: 1733: pBDTEntryEP0OutNext->ADR = ((uint16_t)(&SetupPkt));
  4123  001504  EE20 F002          	lfsr	2,2
  4124  001508  5036               	movf	_pBDTEntryEP0OutNext,w,c
  4125  00150A  26D9               	addwf	fsr2l,f,c
  4126  00150C  5037               	movf	_pBDTEntryEP0OutNext+1,w,c
  4127  00150E  22DA               	addwfc	fsr2h,f,c
  4128  001510  0E20               	movlw	32
  4129  001512  6EDE               	movwf	postinc2,c
  4130  001514  0E04               	movlw	4
  4131  001516  6EDD               	movwf	postdec2,c
  4132                           
  4133                           ;usb_device.c: 1734: pBDTEntryEP0OutNext->STAT.Val = 0x04;
  4134  001518  C036  FFD9         	movff	_pBDTEntryEP0OutNext,fsr2l
  4135  00151C  C037  FFDA         	movff	_pBDTEntryEP0OutNext+1,fsr2h
  4136  001520  0E04               	movlw	4
  4137  001522  6EDF               	movwf	indf2,c
  4138                           
  4139                           ;usb_device.c: 1735: pBDTEntryEP0OutNext->STAT.Val |= 0x80;
  4140  001524  C036  FFD9         	movff	_pBDTEntryEP0OutNext,fsr2l
  4141  001528  C037  FFDA         	movff	_pBDTEntryEP0OutNext+1,fsr2h
  4142  00152C  0E00               	movlw	0
  4143  00152E  8EDB               	bsf	plusw2,7,c
  4144                           
  4145                           ;usb_device.c: 1738: USBStatusStageEnabledFlag2 = 0;
  4146  001530  0E00               	movlw	0
  4147  001532  6E41               	movwf	_USBStatusStageEnabledFlag2,c	;volatile
  4148                           
  4149                           ;usb_device.c: 1739: USBStatusStageEnabledFlag1 = 0;
  4150  001534  0E00               	movlw	0
  4151  001536  6E40               	movwf	_USBStatusStageEnabledFlag1,c	;volatile
  4152                           
  4153                           ;usb_device.c: 1740: if(USBDeferStatusStagePacket == 0)
  4154  001538  503F               	movf	_USBDeferStatusStagePacket,w,c	;volatile
  4155  00153A  A4D8               	btfss	status,2,c
  4156  00153C  D003               	goto	i2l438
  4157                           
  4158                           ;usb_device.c: 1741: {
  4159                           ;usb_device.c: 1742: USBCtrlEPAllowStatusStage();
  4160  00153E  EC39  F00D         	call	_USBCtrlEPAllowStatusStage	;wreg free
  4161  001542  D000               	goto	i2l438
  4162  001544                     i2l438:
  4163  001544  0012               	return		;funcret
  4164  001546                     __end_of_USBCtrlEPServiceComplete:
  4165                           	opt stack 0
  4166                           pclatu	equ	0xFFB
  4167                           pclath	equ	0xFFA
  4168                           tblptru	equ	0xFF8
  4169                           tblptrh	equ	0xFF7
  4170                           tblptrl	equ	0xFF6
  4171                           tablat	equ	0xFF5
  4172                           prodh	equ	0xFF4
  4173                           prodl	equ	0xFF3
  4174                           intcon	equ	0xFF2
  4175                           postinc0	equ	0xFEE
  4176                           fsr0h	equ	0xFEA
  4177                           fsr0l	equ	0xFE9
  4178                           wreg	equ	0xFE8
  4179                           indf1	equ	0xFE7
  4180                           fsr1h	equ	0xFE2
  4181                           fsr1l	equ	0xFE1
  4182                           bsr	equ	0xFE0
  4183                           indf2	equ	0xFDF
  4184                           postinc2	equ	0xFDE
  4185                           postdec2	equ	0xFDD
  4186                           plusw2	equ	0xFDB
  4187                           fsr2h	equ	0xFDA
  4188                           fsr2l	equ	0xFD9
  4189                           status	equ	0xFD8
  4190                           
  4191 ;; *************** function _USBCtrlEPAllowDataStage *****************
  4192 ;; Defined at:
  4193 ;;		line 1488 in file "../src/usb/src/usb_device.c"
  4194 ;; Parameters:    Size  Location     Type
  4195 ;;		None
  4196 ;; Auto vars:     Size  Location     Type
  4197 ;;		None
  4198 ;; Return value:  Size  Location     Type
  4199 ;;		None               void
  4200 ;; Registers used:
  4201 ;;		wreg, fsr1l, fsr1h, fsr2l, fsr2h, status,2, status,0, tblptrl, tblptrh, tblptru, cstack
  4202 ;; Tracked objects:
  4203 ;;		On entry : 0/0
  4204 ;;		On exit  : 0/0
  4205 ;;		Unchanged: 0/0
  4206 ;; Data sizes:     COMRAM   BANK0   BANK1   BANK2   BANK3   BANK4   BANK5   BANK6   BANK7
  4207 ;;      Params:         0       0       0       0       0       0       0       0       0
  4208 ;;      Locals:         0       0       0       0       0       0       0       0       0
  4209 ;;      Temps:          0       0       0       0       0       0       0       0       0
  4210 ;;      Totals:         0       0       0       0       0       0       0       0       0
  4211 ;;Total ram usage:        0 bytes
  4212 ;; Hardware stack levels used:    1
  4213 ;; Hardware stack levels required when called:    1
  4214 ;; This function calls:
  4215 ;;		_USBCtrlTrfTxService
  4216 ;; This function is called by:
  4217 ;;		_USBCtrlEPServiceComplete
  4218 ;; This function uses a non-reentrant model
  4219 ;;
  4220                           
  4221                           	psect	text21
  4222  001CAC                     __ptext21:
  4223                           	opt stack 0
  4224  001CAC                     _USBCtrlEPAllowDataStage:
  4225                           	opt stack 20
  4226                           
  4227                           ;usb_device.c: 1490: USBDeferINDataStagePackets = 0;
  4228                           
  4229                           ;incstack = 0
  4230  001CAC  0E00               	movlw	0
  4231  001CAE  6E3D               	movwf	_USBDeferINDataStagePackets,c	;volatile
  4232                           
  4233                           ;usb_device.c: 1491: USBDeferOUTDataStagePackets = 0;
  4234  001CB0  0E00               	movlw	0
  4235  001CB2  6E3E               	movwf	_USBDeferOUTDataStagePackets,c	;volatile
  4236                           
  4237                           ;usb_device.c: 1493: if(controlTransferState == 2)
  4238  001CB4  0E02               	movlw	2
  4239  001CB6  1843               	xorwf	_controlTransferState,w,c	;volatile
  4240  001CB8  A4D8               	btfss	status,2,c
  4241  001CBA  D01D               	goto	i2l2768
  4242                           
  4243                           ;usb_device.c: 1494: {
  4244                           ;usb_device.c: 1496: pBDTEntryEP0OutNext->CNT = 8;
  4245  001CBC  EE20 F001          	lfsr	2,1
  4246  001CC0  5036               	movf	_pBDTEntryEP0OutNext,w,c
  4247  001CC2  26D9               	addwf	fsr2l,f,c
  4248  001CC4  5037               	movf	_pBDTEntryEP0OutNext+1,w,c
  4249  001CC6  22DA               	addwfc	fsr2h,f,c
  4250  001CC8  0E08               	movlw	8
  4251  001CCA  6EDF               	movwf	indf2,c
  4252                           
  4253                           ;usb_device.c: 1497: pBDTEntryEP0OutNext->ADR = ((uint16_t)(&CtrlTrfData));
  4254  001CCC  EE20 F002          	lfsr	2,2
  4255  001CD0  5036               	movf	_pBDTEntryEP0OutNext,w,c
  4256  001CD2  26D9               	addwf	fsr2l,f,c
  4257  001CD4  5037               	movf	_pBDTEntryEP0OutNext+1,w,c
  4258  001CD6  22DA               	addwfc	fsr2h,f,c
  4259  001CD8  0E28               	movlw	40
  4260  001CDA  6EDE               	movwf	postinc2,c
  4261  001CDC  0E04               	movlw	4
  4262  001CDE  6EDD               	movwf	postdec2,c
  4263                           
  4264                           ;usb_device.c: 1498: pBDTEntryEP0OutNext->STAT.Val = 0x40|(0x08 & 0x08);
  4265  001CE0  C036  FFD9         	movff	_pBDTEntryEP0OutNext,fsr2l
  4266  001CE4  C037  FFDA         	movff	_pBDTEntryEP0OutNext+1,fsr2h
  4267  001CE8  0E48               	movlw	72
  4268  001CEA  6EDF               	movwf	indf2,c
  4269                           
  4270                           ;usb_device.c: 1499: pBDTEntryEP0OutNext->STAT.Val |= 0x80;
  4271  001CEC  C036  FFD9         	movff	_pBDTEntryEP0OutNext,fsr2l
  4272  001CF0  C037  FFDA         	movff	_pBDTEntryEP0OutNext+1,fsr2h
  4273  001CF4  D026               	goto	L4
  4274  001CF6                     i2l2768:
  4275                           
  4276                           ;usb_device.c: 1501: else
  4277                           ;usb_device.c: 1502: {
  4278                           ;usb_device.c: 1505: if(SetupPkt.wLength < inPipes[0].wCount.Val)
  4279  001CF6  0100               	movlb	0	; () banked
  4280  001CF8  517E               	movf	(_inPipes+4)& (0+255),w,b	;volatile
  4281  001CFA  0104               	movlb	4	; () banked
  4282  001CFC  5D26               	subwf	38,w,b	;volatile
  4283  001CFE  0100               	movlb	0	; () banked
  4284  001D00  517F               	movf	(_inPipes+5)& (0+255),w,b	;volatile
  4285  001D02  0104               	movlb	4	; () banked
  4286  001D04  5927               	subwfb	39,w,b	;volatile
  4287  001D06  B0D8               	btfsc	status,0,c
  4288  001D08  D005               	goto	i2l2772
  4289                           
  4290                           ; BSR set to: 4
  4291                           ;usb_device.c: 1506: {
  4292                           ;usb_device.c: 1507: inPipes[0].wCount.Val = SetupPkt.wLength;
  4293  001D0A  C426 F07E          	movff	1062,_inPipes+4	;volatile
  4294  001D0E  C427 F07F          	movff	1063,_inPipes+5	;volatile
  4295  001D12  D000               	goto	i2l2772
  4296  001D14                     i2l2772:
  4297                           
  4298                           ; BSR set to: 4
  4299                           ;usb_device.c: 1508: }
  4300                           ;usb_device.c: 1509: USBCtrlTrfTxService();
  4301  001D14  EC8D  F00B         	call	_USBCtrlTrfTxService	;wreg free
  4302                           
  4303                           ;usb_device.c: 1514: pBDTEntryIn[0]->ADR = ((uint16_t)(&CtrlTrfData));
  4304  001D18  0100               	movlb	0	; () banked
  4305  001D1A  EE20 F002          	lfsr	2,2
  4306  001D1E  5168               	movf	_pBDTEntryIn& (0+255),w,b
  4307  001D20  26D9               	addwf	fsr2l,f,c
  4308  001D22  5169               	movf	(_pBDTEntryIn+1)& (0+255),w,b
  4309  001D24  22DA               	addwfc	fsr2h,f,c
  4310  001D26  0E28               	movlw	40
  4311  001D28  6EDE               	movwf	postinc2,c
  4312  001D2A  0E04               	movlw	4
  4313  001D2C  6EDD               	movwf	postdec2,c
  4314                           
  4315                           ; BSR set to: 0
  4316                           ;usb_device.c: 1515: pBDTEntryIn[0]->STAT.Val = 0x40|(0x08 & 0x08);
  4317  001D2E  C068  FFD9         	movff	_pBDTEntryIn,fsr2l
  4318  001D32  C069  FFDA         	movff	_pBDTEntryIn+1,fsr2h
  4319  001D36  0E48               	movlw	72
  4320  001D38  6EDF               	movwf	indf2,c
  4321                           
  4322                           ; BSR set to: 0
  4323                           ;usb_device.c: 1516: pBDTEntryIn[0]->STAT.Val |= 0x80;
  4324  001D3A  C068  FFD9         	movff	_pBDTEntryIn,fsr2l
  4325  001D3E  C069  FFDA         	movff	_pBDTEntryIn+1,fsr2h
  4326  001D42                     L4:
  4327  001D42  0E00               	movlw	0
  4328  001D44  8EDB               	bsf	plusw2,7,c
  4329  001D46  D000               	goto	i2l420
  4330  001D48                     i2l420:
  4331  001D48  0012               	return		;funcret
  4332  001D4A                     __end_of_USBCtrlEPAllowDataStage:
  4333                           	opt stack 0
  4334                           pclatu	equ	0xFFB
  4335                           pclath	equ	0xFFA
  4336                           tblptru	equ	0xFF8
  4337                           tblptrh	equ	0xFF7
  4338                           tblptrl	equ	0xFF6
  4339                           tablat	equ	0xFF5
  4340                           prodh	equ	0xFF4
  4341                           prodl	equ	0xFF3
  4342                           intcon	equ	0xFF2
  4343                           postinc0	equ	0xFEE
  4344                           fsr0h	equ	0xFEA
  4345                           fsr0l	equ	0xFE9
  4346                           wreg	equ	0xFE8
  4347                           indf1	equ	0xFE7
  4348                           fsr1h	equ	0xFE2
  4349                           fsr1l	equ	0xFE1
  4350                           bsr	equ	0xFE0
  4351                           indf2	equ	0xFDF
  4352                           postinc2	equ	0xFDE
  4353                           postdec2	equ	0xFDD
  4354                           plusw2	equ	0xFDB
  4355                           fsr2h	equ	0xFDA
  4356                           fsr2l	equ	0xFD9
  4357                           status	equ	0xFD8
  4358                           
  4359 ;; *************** function _USBCheckStdRequest *****************
  4360 ;; Defined at:
  4361 ;;		line 2689 in file "../src/usb/src/usb_device.c"
  4362 ;; Parameters:    Size  Location     Type
  4363 ;;		None
  4364 ;; Auto vars:     Size  Location     Type
  4365 ;;		None
  4366 ;; Return value:  Size  Location     Type
  4367 ;;		None               void
  4368 ;; Registers used:
  4369 ;;		wreg, fsr1l, fsr1h, fsr2l, fsr2h, status,2, status,0, tblptrl, tblptrh, tblptru, prodl, prodh, cstack
  4370 ;; Tracked objects:
  4371 ;;		On entry : 0/0
  4372 ;;		On exit  : 0/0
  4373 ;;		Unchanged: 0/0
  4374 ;; Data sizes:     COMRAM   BANK0   BANK1   BANK2   BANK3   BANK4   BANK5   BANK6   BANK7
  4375 ;;      Params:         0       0       0       0       0       0       0       0       0
  4376 ;;      Locals:         0       0       0       0       0       0       0       0       0
  4377 ;;      Temps:          0       0       0       0       0       0       0       0       0
  4378 ;;      Totals:         0       0       0       0       0       0       0       0       0
  4379 ;;Total ram usage:        0 bytes
  4380 ;; Hardware stack levels used:    1
  4381 ;; Hardware stack levels required when called:    5
  4382 ;; This function calls:
  4383 ;;		_USBStdFeatureReqHandler
  4384 ;;		_USBStdGetDscHandler
  4385 ;;		_USBStdGetStatusHandler
  4386 ;;		_USBStdSetCfgHandler
  4387 ;;		_USER_USB_CALLBACK_EVENT_HANDLER
  4388 ;; This function is called by:
  4389 ;;		_USBCtrlTrfSetupHandler
  4390 ;; This function uses a non-reentrant model
  4391 ;;
  4392                           
  4393                           	psect	text22
  4394  001546                     __ptext22:
  4395                           	opt stack 0
  4396  001546                     _USBCheckStdRequest:
  4397                           	opt stack 17
  4398                           
  4399                           ;usb_device.c: 2691: if(SetupPkt.RequestType != (0x00>>5)) return;
  4400                           
  4401                           ;incstack = 0
  4402  001546  0104               	movlb	4	; () banked
  4403  001548  3920               	swapf	32,w,b	;volatile
  4404  00154A  32E8               	rrcf	wreg,f,c
  4405  00154C  0B03               	andlw	3
  4406  00154E  0900               	iorlw	0
  4407  001550  A4D8               	btfss	status,2,c
  4408  001552  D070               	goto	i2l553
  4409  001554  D04D               	goto	i2l3092
  4410                           
  4411                           ; BSR set to: 4
  4412  001556  D06E               	goto	i2l553
  4413                           
  4414                           ; BSR set to: 4
  4415                           ;usb_device.c: 2693: switch(SetupPkt.bRequest)
  4416  001558  D04B               	goto	i2l3092
  4417  00155A                     i2l555:
  4418                           
  4419                           ; BSR set to: 4
  4420                           ;usb_device.c: 2696: inPipes[0].info.bits.busy = 1;
  4421  00155A  0100               	movlb	0	; () banked
  4422  00155C  8F7D               	bsf	(_inPipes+3)& (0+255),7,b	;volatile
  4423                           
  4424                           ; BSR set to: 0
  4425                           ;usb_device.c: 2697: USBDeviceState = ADR_PENDING_STATE;
  4426  00155E  0E08               	movlw	8
  4427  001560  0100               	movlb	0	; () banked
  4428  001562  6F78               	movwf	_USBDeviceState& (0+255),b	;volatile
  4429                           
  4430                           ;usb_device.c: 2699: break;
  4431  001564  D067               	goto	i2l553
  4432  001566                     i2l3062:
  4433                           
  4434                           ;usb_device.c: 2701: USBStdGetDscHandler();
  4435  001566  ECD5  F007         	call	_USBStdGetDscHandler	;wreg free
  4436                           
  4437                           ;usb_device.c: 2702: break;
  4438  00156A  D064               	goto	i2l553
  4439  00156C                     i2l3064:
  4440                           
  4441                           ;usb_device.c: 2704: USBStdSetCfgHandler();
  4442  00156C  EC1B  F00B         	call	_USBStdSetCfgHandler	;wreg free
  4443                           
  4444                           ;usb_device.c: 2705: break;
  4445  001570  D061               	goto	i2l553
  4446  001572                     i2l3066:
  4447                           
  4448                           ;usb_device.c: 2707: inPipes[0].pSrc.bRam = (uint8_t*)&USBActiveConfiguration;
  4449  001572  0E46               	movlw	low _USBActiveConfiguration
  4450  001574  0100               	movlb	0	; () banked
  4451  001576  6F7A               	movwf	_inPipes& (0+255),b	;volatile
  4452  001578  0E00               	movlw	high _USBActiveConfiguration
  4453  00157A  D016               	goto	L5
  4454  00157C                     i2l3068:
  4455                           
  4456                           ; BSR set to: 0
  4457                           ;usb_device.c: 2708: inPipes[0].info.bits.ctrl_trf_mem = 0x01;
  4458  00157C  0100               	movlb	0	; () banked
  4459  00157E  817D               	bsf	(_inPipes+3)& (0+255),0,b	;volatile
  4460  001580  D016               	goto	i2l3082
  4461  001582                     i2l3072:
  4462                           
  4463                           ; BSR set to: 0
  4464                           ;usb_device.c: 2710: inPipes[0].info.bits.busy = 1;
  4465  001582  0100               	movlb	0	; () banked
  4466  001584  8F7D               	bsf	(_inPipes+3)& (0+255),7,b	;volatile
  4467                           
  4468                           ;usb_device.c: 2711: break;
  4469  001586  D056               	goto	i2l553
  4470  001588                     i2l3074:
  4471                           
  4472                           ;usb_device.c: 2713: USBStdGetStatusHandler();
  4473  001588  ECD6  F00C         	call	_USBStdGetStatusHandler	;wreg free
  4474                           
  4475                           ;usb_device.c: 2714: break;
  4476  00158C  D053               	goto	i2l553
  4477                           
  4478                           ;usb_device.c: 2715: case 1:
  4479  00158E  D000               	goto	i2l3076
  4480  001590                     i2l3076:
  4481                           
  4482                           ;usb_device.c: 2716: case 3:
  4483                           ;usb_device.c: 2717: USBStdFeatureReqHandler();
  4484  001590  EC73  F004         	call	_USBStdFeatureReqHandler	;wreg free
  4485                           
  4486                           ;usb_device.c: 2718: break;
  4487  001594  D04F               	goto	i2l553
  4488  001596                     i2l3078:
  4489                           
  4490                           ;usb_device.c: 2720: inPipes[0].pSrc.bRam = (uint8_t*)&USBAlternateInterface[SetupPkt.bI
      +                          ntfID];
  4491  001596  0104               	movlb	4	; () banked
  4492  001598  5124               	movf	36,w,b	;volatile
  4493  00159A  0D01               	mullw	1
  4494  00159C  0E47               	movlw	low _USBAlternateInterface
  4495  00159E  24F3               	addwf	prodl,w,c
  4496  0015A0  0100               	movlb	0	; () banked
  4497  0015A2  6F7A               	movwf	_inPipes& (0+255),b	;volatile
  4498  0015A4  0E00               	movlw	high _USBAlternateInterface
  4499  0015A6  20F4               	addwfc	prodh,w,c
  4500  0015A8                     L5:
  4501  0015A8  0100               	movlb	0	; () banked
  4502  0015AA  6F7B               	movwf	(_inPipes+1)& (0+255),b	;volatile
  4503  0015AC  D7E7               	goto	i2l3068
  4504  0015AE                     i2l3082:
  4505                           
  4506                           ; BSR set to: 0
  4507                           ;usb_device.c: 2722: inPipes[0].wCount.v[0] = 1;
  4508  0015AE  0E01               	movlw	1
  4509  0015B0  0100               	movlb	0	; () banked
  4510  0015B2  6F7E               	movwf	(_inPipes+4)& (0+255),b	;volatile
  4511  0015B4  D7E6               	goto	i2l3072
  4512  0015B6                     i2l564:
  4513                           
  4514                           ; BSR set to: 4
  4515                           ;usb_device.c: 2726: inPipes[0].info.bits.busy = 1;
  4516  0015B6  0100               	movlb	0	; () banked
  4517  0015B8  8F7D               	bsf	(_inPipes+3)& (0+255),7,b	;volatile
  4518                           
  4519                           ; BSR set to: 0
  4520                           ;usb_device.c: 2727: USBAlternateInterface[SetupPkt.bIntfID] = SetupPkt.bAltID;
  4521  0015BA  0104               	movlb	4	; () banked
  4522  0015BC  5124               	movf	36,w,b	;volatile
  4523  0015BE  0D01               	mullw	1
  4524  0015C0  0E47               	movlw	low _USBAlternateInterface
  4525  0015C2  24F3               	addwf	prodl,w,c
  4526  0015C4  6ED9               	movwf	fsr2l,c
  4527  0015C6  0E00               	movlw	high _USBAlternateInterface
  4528  0015C8  20F4               	addwfc	prodh,w,c
  4529  0015CA  6EDA               	movwf	fsr2h,c
  4530  0015CC  C422 FFDF          	movff	1058,indf2	;volatile
  4531                           
  4532                           ;usb_device.c: 2728: break;
  4533  0015D0  D031               	goto	i2l553
  4534  0015D2                     i2l3088:
  4535                           
  4536                           ; BSR set to: 4
  4537                           ;usb_device.c: 2730: USER_USB_CALLBACK_EVENT_HANDLER(EVENT_SET_DESCRIPTOR,0,0);
  4538  0015D2  0E00               	movlw	0
  4539  0015D4  6E1F               	movwf	USER_USB_CALLBACK_EVENT_HANDLER@event+1,c
  4540  0015D6  0E02               	movlw	2
  4541  0015D8  6E1E               	movwf	USER_USB_CALLBACK_EVENT_HANDLER@event,c
  4542  0015DA  0E00               	movlw	0
  4543  0015DC  6E20               	movwf	USER_USB_CALLBACK_EVENT_HANDLER@pdata,c
  4544  0015DE  0E00               	movlw	0
  4545  0015E0  6E21               	movwf	USER_USB_CALLBACK_EVENT_HANDLER@pdata+1,c
  4546  0015E2  0E00               	movlw	0
  4547  0015E4  6E23               	movwf	USER_USB_CALLBACK_EVENT_HANDLER@size+1,c
  4548  0015E6  0E00               	movlw	0
  4549  0015E8  6E22               	movwf	USER_USB_CALLBACK_EVENT_HANDLER@size,c
  4550  0015EA  EC37  F00F         	call	_USER_USB_CALLBACK_EVENT_HANDLER	;wreg free
  4551                           
  4552                           ;usb_device.c: 2735: }
  4553                           
  4554                           ;usb_device.c: 2734: break;
  4555                           
  4556                           ;usb_device.c: 2733: default:
  4557                           
  4558                           ;usb_device.c: 2732: case 12:
  4559                           
  4560                           ;usb_device.c: 2731: break;
  4561  0015EE  D022               	goto	i2l553
  4562  0015F0                     i2l3092:
  4563  0015F0  0104               	movlb	4	; () banked
  4564  0015F2  5121               	movf	33,w,b	;volatile
  4565                           
  4566                           ; Switch size 1, requested type "space"
  4567                           ; Number of cases is 11, Range of values is 0 to 12
  4568                           ; switch strategies available:
  4569                           ; Name         Instructions Cycles
  4570                           ; simple_byte           34    18 (average)
  4571                           ;	Chosen strategy is simple_byte
  4572  0015F4  0A00               	xorlw	0	; case 0
  4573  0015F6  B4D8               	btfsc	status,2,c
  4574  0015F8  D7C7               	goto	i2l3074
  4575  0015FA  0A01               	xorlw	1	; case 1
  4576  0015FC  B4D8               	btfsc	status,2,c
  4577  0015FE  D7C8               	goto	i2l3076
  4578  001600  0A02               	xorlw	2	; case 3
  4579  001602  B4D8               	btfsc	status,2,c
  4580  001604  D7C5               	goto	i2l3076
  4581  001606  0A06               	xorlw	6	; case 5
  4582  001608  B4D8               	btfsc	status,2,c
  4583  00160A  D7A7               	goto	i2l555
  4584  00160C  0A03               	xorlw	3	; case 6
  4585  00160E  B4D8               	btfsc	status,2,c
  4586  001610  D7AA               	goto	i2l3062
  4587  001612  0A01               	xorlw	1	; case 7
  4588  001614  B4D8               	btfsc	status,2,c
  4589  001616  D7DD               	goto	i2l3088
  4590  001618  0A0F               	xorlw	15	; case 8
  4591  00161A  B4D8               	btfsc	status,2,c
  4592  00161C  D7AA               	goto	i2l3066
  4593  00161E  0A01               	xorlw	1	; case 9
  4594  001620  B4D8               	btfsc	status,2,c
  4595  001622  D7A4               	goto	i2l3064
  4596  001624  0A03               	xorlw	3	; case 10
  4597  001626  B4D8               	btfsc	status,2,c
  4598  001628  D7B6               	goto	i2l3078
  4599  00162A  0A01               	xorlw	1	; case 11
  4600  00162C  B4D8               	btfsc	status,2,c
  4601  00162E  D7C3               	goto	i2l564
  4602  001630  0A07               	xorlw	7	; case 12
  4603  001632  D000               	goto	i2l553
  4604  001634                     i2l553:
  4605  001634  0012               	return		;funcret
  4606  001636                     __end_of_USBCheckStdRequest:
  4607                           	opt stack 0
  4608                           pclatu	equ	0xFFB
  4609                           pclath	equ	0xFFA
  4610                           tblptru	equ	0xFF8
  4611                           tblptrh	equ	0xFF7
  4612                           tblptrl	equ	0xFF6
  4613                           tablat	equ	0xFF5
  4614                           prodh	equ	0xFF4
  4615                           prodl	equ	0xFF3
  4616                           intcon	equ	0xFF2
  4617                           postinc0	equ	0xFEE
  4618                           fsr0h	equ	0xFEA
  4619                           fsr0l	equ	0xFE9
  4620                           wreg	equ	0xFE8
  4621                           indf1	equ	0xFE7
  4622                           fsr1h	equ	0xFE2
  4623                           fsr1l	equ	0xFE1
  4624                           bsr	equ	0xFE0
  4625                           indf2	equ	0xFDF
  4626                           postinc2	equ	0xFDE
  4627                           postdec2	equ	0xFDD
  4628                           plusw2	equ	0xFDB
  4629                           fsr2h	equ	0xFDA
  4630                           fsr2l	equ	0xFD9
  4631                           status	equ	0xFD8
  4632                           
  4633 ;; *************** function _USBStdSetCfgHandler *****************
  4634 ;; Defined at:
  4635 ;;		line 1968 in file "../src/usb/src/usb_device.c"
  4636 ;; Parameters:    Size  Location     Type
  4637 ;;		None
  4638 ;; Auto vars:     Size  Location     Type
  4639 ;;  i               1   37[COMRAM] unsigned char 
  4640 ;; Return value:  Size  Location     Type
  4641 ;;		None               void
  4642 ;; Registers used:
  4643 ;;		wreg, fsr2l, fsr2h, status,2, status,0, prodl, prodh, cstack
  4644 ;; Tracked objects:
  4645 ;;		On entry : 0/0
  4646 ;;		On exit  : 0/0
  4647 ;;		Unchanged: 0/0
  4648 ;; Data sizes:     COMRAM   BANK0   BANK1   BANK2   BANK3   BANK4   BANK5   BANK6   BANK7
  4649 ;;      Params:         0       0       0       0       0       0       0       0       0
  4650 ;;      Locals:         1       0       0       0       0       0       0       0       0
  4651 ;;      Temps:          0       0       0       0       0       0       0       0       0
  4652 ;;      Totals:         1       0       0       0       0       0       0       0       0
  4653 ;;Total ram usage:        1 bytes
  4654 ;; Hardware stack levels used:    1
  4655 ;; Hardware stack levels required when called:    4
  4656 ;; This function calls:
  4657 ;;		_USER_USB_CALLBACK_EVENT_HANDLER
  4658 ;;		i2_memset
  4659 ;; This function is called by:
  4660 ;;		_USBCheckStdRequest
  4661 ;; This function uses a non-reentrant model
  4662 ;;
  4663                           
  4664                           	psect	text23
  4665  001636                     __ptext23:
  4666                           	opt stack 0
  4667  001636                     _USBStdSetCfgHandler:
  4668                           	opt stack 17
  4669                           
  4670                           ;usb_device.c: 1970: uint8_t i;
  4671                           ;usb_device.c: 1973: inPipes[0].info.bits.busy = 1;
  4672                           
  4673                           ;incstack = 0
  4674  001636  0100               	movlb	0	; () banked
  4675  001638  8F7D               	bsf	(_inPipes+3)& (0+255),7,b	;volatile
  4676                           
  4677                           ; BSR set to: 0
  4678                           ;usb_device.c: 1976: memset((void*)&UEP1,0x00,(1));;
  4679  00163A  0E71               	movlw	113
  4680  00163C  6E12               	movwf	i2memset@p1,c
  4681  00163E  0E0F               	movlw	15
  4682  001640  6E13               	movwf	i2memset@p1+1,c
  4683  001642  0E00               	movlw	0
  4684  001644  6E15               	movwf	i2memset@c+1,c
  4685  001646  0E00               	movlw	0
  4686  001648  6E14               	movwf	i2memset@c,c
  4687  00164A  0E00               	movlw	0
  4688  00164C  6E17               	movwf	i2memset@n+1,c
  4689  00164E  0E01               	movlw	1
  4690  001650  6E16               	movwf	i2memset@n,c
  4691  001652  ECDF  F010         	call	i2_memset	;wreg free
  4692                           
  4693                           ;usb_device.c: 1979: memset((void*)&BDT[0], 0x00, sizeof(BDT));
  4694  001656  0E00               	movlw	0
  4695  001658  6E12               	movwf	i2memset@p1,c
  4696  00165A  0E04               	movlw	4
  4697  00165C  6E13               	movwf	i2memset@p1+1,c
  4698  00165E  0E00               	movlw	0
  4699  001660  6E15               	movwf	i2memset@c+1,c
  4700  001662  0E00               	movlw	0
  4701  001664  6E14               	movwf	i2memset@c,c
  4702  001666  0E00               	movlw	0
  4703  001668  6E17               	movwf	i2memset@n+1,c
  4704  00166A  0E20               	movlw	32
  4705  00166C  6E16               	movwf	i2memset@n,c
  4706  00166E  ECDF  F010         	call	i2_memset	;wreg free
  4707                           
  4708                           ;usb_device.c: 1982: UCONbits.PPBRST = 1;
  4709  001672  8C6D               	bsf	3949,6,c	;volatile
  4710                           
  4711                           ;usb_device.c: 1987: for(i = 0; i < (uint8_t)(1+1u); i++)
  4712  001674  0E00               	movlw	0
  4713  001676  6E26               	movwf	USBStdSetCfgHandler@i,c
  4714  001678                     i2l2788:
  4715  001678  0E01               	movlw	1
  4716  00167A  6426               	cpfsgt	USBStdSetCfgHandler@i,c
  4717  00167C  D001               	goto	i2l2792
  4718  00167E  D016               	goto	i2l2798
  4719  001680                     i2l2792:
  4720                           
  4721                           ;usb_device.c: 1988: {
  4722                           ;usb_device.c: 1989: ep_data_in[i].Val = 0u;
  4723  001680  5026               	movf	USBStdSetCfgHandler@i,w,c
  4724  001682  0D01               	mullw	1
  4725  001684  0E74               	movlw	low _ep_data_in
  4726  001686  24F3               	addwf	prodl,w,c
  4727  001688  6ED9               	movwf	fsr2l,c
  4728  00168A  0E00               	movlw	high _ep_data_in
  4729  00168C  20F4               	addwfc	prodh,w,c
  4730  00168E  6EDA               	movwf	fsr2h,c
  4731  001690  0E00               	movlw	0
  4732  001692  6EDF               	movwf	indf2,c
  4733                           
  4734                           ;usb_device.c: 1990: ep_data_out[i].Val = 0u;
  4735  001694  5026               	movf	USBStdSetCfgHandler@i,w,c
  4736  001696  0D01               	mullw	1
  4737  001698  0E76               	movlw	low _ep_data_out
  4738  00169A  24F3               	addwf	prodl,w,c
  4739  00169C  6ED9               	movwf	fsr2l,c
  4740  00169E  0E00               	movlw	high _ep_data_out
  4741  0016A0  20F4               	addwfc	prodh,w,c
  4742  0016A2  6EDA               	movwf	fsr2h,c
  4743  0016A4  0E00               	movlw	0
  4744  0016A6  6EDF               	movwf	indf2,c
  4745  0016A8  2A26               	incf	USBStdSetCfgHandler@i,f,c
  4746  0016AA  D7E6               	goto	i2l2788
  4747  0016AC                     i2l2798:
  4748                           
  4749                           ;usb_device.c: 1991: }
  4750                           ;usb_device.c: 1994: memset((void*)&USBAlternateInterface,0x00,1);
  4751  0016AC  0E47               	movlw	low _USBAlternateInterface
  4752  0016AE  6E12               	movwf	i2memset@p1,c
  4753  0016B0  0E00               	movlw	high _USBAlternateInterface
  4754  0016B2  6E13               	movwf	i2memset@p1+1,c
  4755  0016B4  0E00               	movlw	0
  4756  0016B6  6E15               	movwf	i2memset@c+1,c
  4757  0016B8  0E00               	movlw	0
  4758  0016BA  6E14               	movwf	i2memset@c,c
  4759  0016BC  0E00               	movlw	0
  4760  0016BE  6E17               	movwf	i2memset@n+1,c
  4761  0016C0  0E01               	movlw	1
  4762  0016C2  6E16               	movwf	i2memset@n,c
  4763  0016C4  ECDF  F010         	call	i2_memset	;wreg free
  4764                           
  4765                           ;usb_device.c: 1997: UCONbits.PPBRST = 0;
  4766  0016C8  9C6D               	bcf	3949,6,c	;volatile
  4767                           
  4768                           ;usb_device.c: 1999: pBDTEntryIn[0] = (volatile BDT_ENTRY*)&BDT[2];
  4769  0016CA  0E08               	movlw	8
  4770  0016CC  0100               	movlb	0	; () banked
  4771  0016CE  6F68               	movwf	_pBDTEntryIn& (0+255),b
  4772  0016D0  0E04               	movlw	4
  4773  0016D2  0100               	movlb	0	; () banked
  4774  0016D4  6F69               	movwf	(_pBDTEntryIn+1)& (0+255),b
  4775                           
  4776                           ; BSR set to: 0
  4777                           ;usb_device.c: 2002: pBDTEntryEP0OutCurrent = (volatile BDT_ENTRY*)&BDT[0];
  4778  0016D6  0E00               	movlw	0
  4779  0016D8  6E34               	movwf	_pBDTEntryEP0OutCurrent,c
  4780  0016DA  0E04               	movlw	4
  4781  0016DC  6E35               	movwf	_pBDTEntryEP0OutCurrent+1,c
  4782                           
  4783                           ; BSR set to: 0
  4784                           ;usb_device.c: 2003: pBDTEntryEP0OutNext = pBDTEntryEP0OutCurrent;
  4785  0016DE  C034  F036         	movff	_pBDTEntryEP0OutCurrent,_pBDTEntryEP0OutNext
  4786  0016E2  C035  F037         	movff	_pBDTEntryEP0OutCurrent+1,_pBDTEntryEP0OutNext+1
  4787                           
  4788                           ; BSR set to: 0
  4789                           ;usb_device.c: 2006: USBActiveConfiguration = SetupPkt.bConfigurationValue;
  4790  0016E6  C422 F046          	movff	1058,_USBActiveConfiguration	;volatile
  4791                           
  4792                           ; BSR set to: 0
  4793                           ;usb_device.c: 2009: if(USBActiveConfiguration == 0)
  4794  0016EA  5046               	movf	_USBActiveConfiguration,w,c	;volatile
  4795  0016EC  A4D8               	btfss	status,2,c
  4796  0016EE  D002               	goto	i2l2814
  4797                           
  4798                           ; BSR set to: 0
  4799                           ;usb_device.c: 2010: {
  4800                           ;usb_device.c: 2012: USBDeviceState = ADDRESS_STATE;
  4801  0016F0  0E10               	movlw	16
  4802  0016F2  D00F               	goto	L6
  4803  0016F4                     i2l2814:
  4804                           
  4805                           ; BSR set to: 0
  4806                           ;usb_device.c: 2014: else
  4807                           ;usb_device.c: 2015: {
  4808                           ;usb_device.c: 2017: USER_USB_CALLBACK_EVENT_HANDLER(EVENT_CONFIGURED,(void*)&USBActiveC
      +                          onfiguration,1);
  4809  0016F4  0E00               	movlw	0
  4810  0016F6  6E1F               	movwf	USER_USB_CALLBACK_EVENT_HANDLER@event+1,c
  4811  0016F8  0E01               	movlw	1
  4812  0016FA  6E1E               	movwf	USER_USB_CALLBACK_EVENT_HANDLER@event,c
  4813  0016FC  0E46               	movlw	low _USBActiveConfiguration
  4814  0016FE  6E20               	movwf	USER_USB_CALLBACK_EVENT_HANDLER@pdata,c
  4815  001700  0E00               	movlw	high _USBActiveConfiguration
  4816  001702  6E21               	movwf	USER_USB_CALLBACK_EVENT_HANDLER@pdata+1,c
  4817  001704  0E00               	movlw	0
  4818  001706  6E23               	movwf	USER_USB_CALLBACK_EVENT_HANDLER@size+1,c
  4819  001708  0E01               	movlw	1
  4820  00170A  6E22               	movwf	USER_USB_CALLBACK_EVENT_HANDLER@size,c
  4821  00170C  EC37  F00F         	call	_USER_USB_CALLBACK_EVENT_HANDLER	;wreg free
  4822                           
  4823                           ;usb_device.c: 2022: USBDeviceState = CONFIGURED_STATE;
  4824  001710  0E20               	movlw	32
  4825  001712                     L6:
  4826  001712  0100               	movlb	0	; () banked
  4827  001714  6F78               	movwf	_USBDeviceState& (0+255),b	;volatile
  4828  001716  D000               	goto	i2l473
  4829  001718                     i2l473:
  4830                           
  4831                           ; BSR set to: 0
  4832  001718  0012               	return		;funcret
  4833  00171A                     __end_of_USBStdSetCfgHandler:
  4834                           	opt stack 0
  4835                           pclatu	equ	0xFFB
  4836                           pclath	equ	0xFFA
  4837                           tblptru	equ	0xFF8
  4838                           tblptrh	equ	0xFF7
  4839                           tblptrl	equ	0xFF6
  4840                           tablat	equ	0xFF5
  4841                           prodh	equ	0xFF4
  4842                           prodl	equ	0xFF3
  4843                           intcon	equ	0xFF2
  4844                           postinc0	equ	0xFEE
  4845                           fsr0h	equ	0xFEA
  4846                           fsr0l	equ	0xFE9
  4847                           wreg	equ	0xFE8
  4848                           indf1	equ	0xFE7
  4849                           fsr1h	equ	0xFE2
  4850                           fsr1l	equ	0xFE1
  4851                           bsr	equ	0xFE0
  4852                           indf2	equ	0xFDF
  4853                           postinc2	equ	0xFDE
  4854                           postdec2	equ	0xFDD
  4855                           plusw2	equ	0xFDB
  4856                           fsr2h	equ	0xFDA
  4857                           fsr2l	equ	0xFD9
  4858                           status	equ	0xFD8
  4859                           
  4860 ;; *************** function i2_memset *****************
  4861 ;; Defined at:
  4862 ;;		line 8 in file "C:\Program Files (x86)\Microchip\xc8\v1.34\sources\common\memset.c"
  4863 ;; Parameters:    Size  Location     Type
  4864 ;;  p1              2   17[COMRAM] PTR void 
  4865 ;;		 -> USBAlternateInterface(1), BDT(32), UEP1(1), ToSendDataBuffer(64), 
  4866 ;;  c               2   19[COMRAM] int 
  4867 ;;  n               2   21[COMRAM] unsigned int 
  4868 ;; Auto vars:     Size  Location     Type
  4869 ;;  memset          2   23[COMRAM] PTR unsigned char 
  4870 ;;		 -> USBAlternateInterface(1), BDT(32), UEP1(1), ToSendDataBuffer(64), 
  4871 ;; Return value:  Size  Location     Type
  4872 ;;                  2   17[COMRAM] PTR void 
  4873 ;; Registers used:
  4874 ;;		wreg, fsr2l, fsr2h, status,2, status,0
  4875 ;; Tracked objects:
  4876 ;;		On entry : 0/0
  4877 ;;		On exit  : 0/0
  4878 ;;		Unchanged: 0/0
  4879 ;; Data sizes:     COMRAM   BANK0   BANK1   BANK2   BANK3   BANK4   BANK5   BANK6   BANK7
  4880 ;;      Params:         6       0       0       0       0       0       0       0       0
  4881 ;;      Locals:         2       0       0       0       0       0       0       0       0
  4882 ;;      Temps:          0       0       0       0       0       0       0       0       0
  4883 ;;      Totals:         8       0       0       0       0       0       0       0       0
  4884 ;;Total ram usage:        8 bytes
  4885 ;; Hardware stack levels used:    1
  4886 ;; This function calls:
  4887 ;;		Nothing
  4888 ;; This function is called by:
  4889 ;;		_USBStdSetCfgHandler
  4890 ;;		i2_USBDeviceInit
  4891 ;; This function uses a non-reentrant model
  4892 ;;
  4893                           
  4894                           	psect	text24
  4895  0021BE                     __ptext24:
  4896                           	opt stack 0
  4897  0021BE                     i2_memset:
  4898                           	opt stack 23
  4899                           
  4900                           ; BSR set to: 0
  4901                           ;incstack = 0
  4902  0021BE  C012  F018         	movff	i2memset@p1,i2memset@p
  4903  0021C2  C013  F019         	movff	i2memset@p1+1,i2memset@p+1
  4904  0021C6  D009               	goto	i2l2722
  4905  0021C8                     i2l2718:
  4906  0021C8  C018  FFD9         	movff	i2memset@p,fsr2l
  4907  0021CC  C019  FFDA         	movff	i2memset@p+1,fsr2h
  4908  0021D0  C014  FFDF         	movff	i2memset@c,indf2
  4909  0021D4  4A18               	infsnz	i2memset@p,f,c
  4910  0021D6  2A19               	incf	i2memset@p+1,f,c
  4911  0021D8  D000               	goto	i2l2722
  4912  0021DA                     i2l2722:
  4913  0021DA  0616               	decf	i2memset@n,f,c
  4914  0021DC  A0D8               	btfss	status,0,c
  4915  0021DE  0617               	decf	i2memset@n+1,f,c
  4916  0021E0  2816               	incf	i2memset@n,w,c
  4917  0021E2  E1F2               	bnz	i2l2718
  4918  0021E4  2817               	incf	i2memset@n+1,w,c
  4919  0021E6  A4D8               	btfss	status,2,c
  4920  0021E8  D7EF               	goto	i2l2718
  4921                           
  4922                           ;	Return value of i2_memset is never used
  4923  0021EA  0012               	return		;funcret
  4924  0021EC                     __end_ofi2_memset:
  4925                           	opt stack 0
  4926                           pclatu	equ	0xFFB
  4927                           pclath	equ	0xFFA
  4928                           tblptru	equ	0xFF8
  4929                           tblptrh	equ	0xFF7
  4930                           tblptrl	equ	0xFF6
  4931                           tablat	equ	0xFF5
  4932                           prodh	equ	0xFF4
  4933                           prodl	equ	0xFF3
  4934                           intcon	equ	0xFF2
  4935                           postinc0	equ	0xFEE
  4936                           fsr0h	equ	0xFEA
  4937                           fsr0l	equ	0xFE9
  4938                           wreg	equ	0xFE8
  4939                           indf1	equ	0xFE7
  4940                           fsr1h	equ	0xFE2
  4941                           fsr1l	equ	0xFE1
  4942                           bsr	equ	0xFE0
  4943                           indf2	equ	0xFDF
  4944                           postinc2	equ	0xFDE
  4945                           postdec2	equ	0xFDD
  4946                           plusw2	equ	0xFDB
  4947                           fsr2h	equ	0xFDA
  4948                           fsr2l	equ	0xFD9
  4949                           status	equ	0xFD8
  4950                           
  4951 ;; *************** function _USBStdGetStatusHandler *****************
  4952 ;; Defined at:
  4953 ;;		line 2129 in file "../src/usb/src/usb_device.c"
  4954 ;; Parameters:    Size  Location     Type
  4955 ;;		None
  4956 ;; Auto vars:     Size  Location     Type
  4957 ;;  p               2   18[COMRAM] PTR struct __BDT
  4958 ;;		 -> BDT(32), NULL(0), 
  4959 ;; Return value:  Size  Location     Type
  4960 ;;		None               void
  4961 ;; Registers used:
  4962 ;;		wreg, fsr2l, fsr2h, status,2, status,0, prodl, prodh
  4963 ;; Tracked objects:
  4964 ;;		On entry : 0/0
  4965 ;;		On exit  : 0/0
  4966 ;;		Unchanged: 0/0
  4967 ;; Data sizes:     COMRAM   BANK0   BANK1   BANK2   BANK3   BANK4   BANK5   BANK6   BANK7
  4968 ;;      Params:         0       0       0       0       0       0       0       0       0
  4969 ;;      Locals:         2       0       0       0       0       0       0       0       0
  4970 ;;      Temps:          1       0       0       0       0       0       0       0       0
  4971 ;;      Totals:         3       0       0       0       0       0       0       0       0
  4972 ;;Total ram usage:        3 bytes
  4973 ;; Hardware stack levels used:    1
  4974 ;; This function calls:
  4975 ;;		Nothing
  4976 ;; This function is called by:
  4977 ;;		_USBCheckStdRequest
  4978 ;; This function uses a non-reentrant model
  4979 ;;
  4980                           
  4981                           	psect	text25
  4982  0019AC                     __ptext25:
  4983                           	opt stack 0
  4984  0019AC                     _USBStdGetStatusHandler:
  4985                           	opt stack 21
  4986                           
  4987                           ;usb_device.c: 2131: CtrlTrfData[0] = 0;
  4988                           
  4989                           ;incstack = 0
  4990  0019AC  0E00               	movlw	0
  4991  0019AE  0104               	movlb	4	; () banked
  4992  0019B0  6F28               	movwf	40,b	;volatile
  4993                           
  4994                           ;usb_device.c: 2132: CtrlTrfData[1] = 0;
  4995  0019B2  0E00               	movlw	0
  4996  0019B4  0104               	movlb	4	; () banked
  4997  0019B6  6F29               	movwf	41,b	;volatile
  4998                           
  4999                           ;usb_device.c: 2134: switch(SetupPkt.Recipient)
  5000  0019B8  D040               	goto	i2l2870
  5001  0019BA                     i2l491:
  5002                           
  5003                           ; BSR set to: 4
  5004                           ;usb_device.c: 2137: inPipes[0].info.bits.busy = 1;
  5005  0019BA  0100               	movlb	0	; () banked
  5006  0019BC  8F7D               	bsf	(_inPipes+3)& (0+255),7,b	;volatile
  5007                           
  5008                           ;usb_device.c: 2142: if(0 == 1)
  5009  0019BE  D003               	goto	i2l2854
  5010                           
  5011                           ; BSR set to: 0
  5012                           ;usb_device.c: 2143: {
  5013                           ;usb_device.c: 2144: CtrlTrfData[0]|=0x01;
  5014  0019C0  0104               	movlb	4	; () banked
  5015  0019C2  8128               	bsf	40,0,b	;volatile
  5016  0019C4  D000               	goto	i2l2854
  5017  0019C6                     i2l2854:
  5018                           
  5019                           ;usb_device.c: 2145: }
  5020                           ;usb_device.c: 2147: if(RemoteWakeup == 1)
  5021  0019C6  043B               	decf	_RemoteWakeup,w,c	;volatile
  5022  0019C8  A4D8               	btfss	status,2,c
  5023  0019CA  D043               	goto	i2l494
  5024                           
  5025                           ;usb_device.c: 2148: {
  5026                           ;usb_device.c: 2149: CtrlTrfData[0]|=0x02;
  5027  0019CC  0104               	movlb	4	; () banked
  5028  0019CE  8328               	bsf	40,1,b	;volatile
  5029                           
  5030                           ; BSR set to: 4
  5031                           ;usb_device.c: 2150: }
  5032                           ;usb_device.c: 2151: break;
  5033  0019D0  D040               	goto	i2l494
  5034  0019D2                     i2l495:
  5035                           
  5036                           ; BSR set to: 4
  5037                           ;usb_device.c: 2153: inPipes[0].info.bits.busy = 1;
  5038  0019D2  0100               	movlb	0	; () banked
  5039  0019D4  8F7D               	bsf	(_inPipes+3)& (0+255),7,b	;volatile
  5040                           
  5041                           ;usb_device.c: 2154: break;
  5042  0019D6  D03D               	goto	i2l494
  5043  0019D8                     i2l496:
  5044                           
  5045                           ; BSR set to: 4
  5046                           ;usb_device.c: 2156: inPipes[0].info.bits.busy = 1;
  5047  0019D8  0100               	movlb	0	; () banked
  5048  0019DA  8F7D               	bsf	(_inPipes+3)& (0+255),7,b	;volatile
  5049                           
  5050                           ;usb_device.c: 2160: {
  5051                           ;usb_device.c: 2161: BDT_ENTRY *p;
  5052                           ;usb_device.c: 2163: if(SetupPkt.EPDir == 0)
  5053  0019DC  0104               	movlb	4	; () banked
  5054  0019DE  BF24               	btfsc	36,7,b	;volatile
  5055  0019E0  D00B               	goto	i2l2860
  5056                           
  5057                           ; BSR set to: 4
  5058                           ;usb_device.c: 2164: {
  5059                           ;usb_device.c: 2165: p = (BDT_ENTRY*)pBDTEntryOut[SetupPkt.EPNum];
  5060  0019E2  0104               	movlb	4	; () banked
  5061  0019E4  5124               	movf	36,w,b	;volatile
  5062  0019E6  0B0F               	andlw	15
  5063  0019E8  6E12               	movwf	??_USBStdGetStatusHandler& (0+255),c
  5064  0019EA  5012               	movf	??_USBStdGetStatusHandler,w,c
  5065  0019EC  0D02               	mullw	2
  5066  0019EE  0E6C               	movlw	low _pBDTEntryOut
  5067  0019F0  24F3               	addwf	prodl,w,c
  5068  0019F2  6ED9               	movwf	fsr2l,c
  5069  0019F4  0E00               	movlw	high _pBDTEntryOut
  5070  0019F6  D00A               	goto	L7
  5071  0019F8                     i2l2860:
  5072                           
  5073                           ; BSR set to: 4
  5074                           ;usb_device.c: 2167: else
  5075                           ;usb_device.c: 2168: {
  5076                           ;usb_device.c: 2169: p = (BDT_ENTRY*)pBDTEntryIn[SetupPkt.EPNum];
  5077  0019F8  0104               	movlb	4	; () banked
  5078  0019FA  5124               	movf	36,w,b	;volatile
  5079  0019FC  0B0F               	andlw	15
  5080  0019FE  6E12               	movwf	??_USBStdGetStatusHandler& (0+255),c
  5081  001A00  5012               	movf	??_USBStdGetStatusHandler,w,c
  5082  001A02  0D02               	mullw	2
  5083  001A04  0E68               	movlw	low _pBDTEntryIn
  5084  001A06  24F3               	addwf	prodl,w,c
  5085  001A08  6ED9               	movwf	fsr2l,c
  5086  001A0A  0E00               	movlw	high _pBDTEntryIn
  5087  001A0C                     L7:
  5088  001A0C  20F4               	addwfc	prodh,w,c
  5089  001A0E  6EDA               	movwf	fsr2h,c
  5090  001A10  CFDE F013          	movff	postinc2,USBStdGetStatusHandler@p
  5091  001A14  CFDD F014          	movff	postdec2,USBStdGetStatusHandler@p+1
  5092  001A18  D000               	goto	i2l2862
  5093  001A1A                     i2l2862:
  5094                           
  5095                           ; BSR set to: 4
  5096                           ;usb_device.c: 2170: }
  5097                           ;usb_device.c: 2172: if((p->STAT.UOWN == 1) && (p->STAT.BSTALL == 1))
  5098  001A1A  C013  FFD9         	movff	USBStdGetStatusHandler@p,fsr2l
  5099  001A1E  C014  FFDA         	movff	USBStdGetStatusHandler@p+1,fsr2h
  5100  001A22  AEDF               	btfss	indf2,7,c
  5101  001A24  D016               	goto	i2l494
  5102                           
  5103                           ; BSR set to: 4
  5104  001A26  C013  FFD9         	movff	USBStdGetStatusHandler@p,fsr2l
  5105  001A2A  C014  FFDA         	movff	USBStdGetStatusHandler@p+1,fsr2h
  5106  001A2E  A4DF               	btfss	indf2,2,c
  5107  001A30  D010               	goto	i2l494
  5108                           
  5109                           ; BSR set to: 4
  5110                           ;usb_device.c: 2173: CtrlTrfData[0]=0x01;
  5111  001A32  0E01               	movlw	1
  5112  001A34  0104               	movlb	4	; () banked
  5113  001A36  6F28               	movwf	40,b	;volatile
  5114                           
  5115                           ; BSR set to: 4
  5116                           ;usb_device.c: 2175: }
  5117                           ;usb_device.c: 2176: }
  5118                           
  5119                           ; BSR set to: 4
  5120                           ;usb_device.c: 2174: break;
  5121  001A38  D00C               	goto	i2l494
  5122  001A3A                     i2l2870:
  5123                           
  5124                           ; BSR set to: 4
  5125  001A3A  0104               	movlb	4	; () banked
  5126  001A3C  5120               	movf	32,w,b	;volatile
  5127  001A3E  0B1F               	andlw	31
  5128                           
  5129                           ; Switch size 1, requested type "space"
  5130                           ; Number of cases is 3, Range of values is 0 to 2
  5131                           ; switch strategies available:
  5132                           ; Name         Instructions Cycles
  5133                           ; simple_byte           10     6 (average)
  5134                           ;	Chosen strategy is simple_byte
  5135  001A40  0A00               	xorlw	0	; case 0
  5136  001A42  B4D8               	btfsc	status,2,c
  5137  001A44  D7BA               	goto	i2l491
  5138  001A46  0A01               	xorlw	1	; case 1
  5139  001A48  B4D8               	btfsc	status,2,c
  5140  001A4A  D7C3               	goto	i2l495
  5141  001A4C  0A03               	xorlw	3	; case 2
  5142  001A4E  B4D8               	btfsc	status,2,c
  5143  001A50  D7C3               	goto	i2l496
  5144  001A52                     i2l494:
  5145                           
  5146                           ;usb_device.c: 2178: if(inPipes[0].info.bits.busy == 1)
  5147  001A52  0100               	movlb	0	; () banked
  5148  001A54  AF7D               	btfss	(_inPipes+3)& (0+255),7,b	;volatile
  5149  001A56  D00C               	goto	i2l501
  5150                           
  5151                           ; BSR set to: 0
  5152                           ;usb_device.c: 2179: {
  5153                           ;usb_device.c: 2180: inPipes[0].pSrc.bRam = (uint8_t*)&CtrlTrfData;
  5154  001A58  0E28               	movlw	40
  5155  001A5A  0100               	movlb	0	; () banked
  5156  001A5C  6F7A               	movwf	_inPipes& (0+255),b	;volatile
  5157  001A5E  0E04               	movlw	4
  5158  001A60  0100               	movlb	0	; () banked
  5159  001A62  6F7B               	movwf	(_inPipes+1)& (0+255),b	;volatile
  5160                           
  5161                           ; BSR set to: 0
  5162                           ;usb_device.c: 2181: inPipes[0].info.bits.ctrl_trf_mem = 0x01;
  5163  001A64  0100               	movlb	0	; () banked
  5164  001A66  817D               	bsf	(_inPipes+3)& (0+255),0,b	;volatile
  5165                           
  5166                           ; BSR set to: 0
  5167                           ;usb_device.c: 2182: inPipes[0].wCount.v[0] = 2;
  5168  001A68  0E02               	movlw	2
  5169  001A6A  0100               	movlb	0	; () banked
  5170  001A6C  6F7E               	movwf	(_inPipes+4)& (0+255),b	;volatile
  5171  001A6E  D000               	goto	i2l501
  5172  001A70                     i2l501:
  5173                           
  5174                           ; BSR set to: 0
  5175  001A70  0012               	return		;funcret
  5176  001A72                     __end_of_USBStdGetStatusHandler:
  5177                           	opt stack 0
  5178                           pclatu	equ	0xFFB
  5179                           pclath	equ	0xFFA
  5180                           tblptru	equ	0xFF8
  5181                           tblptrh	equ	0xFF7
  5182                           tblptrl	equ	0xFF6
  5183                           tablat	equ	0xFF5
  5184                           prodh	equ	0xFF4
  5185                           prodl	equ	0xFF3
  5186                           intcon	equ	0xFF2
  5187                           postinc0	equ	0xFEE
  5188                           fsr0h	equ	0xFEA
  5189                           fsr0l	equ	0xFE9
  5190                           wreg	equ	0xFE8
  5191                           indf1	equ	0xFE7
  5192                           fsr1h	equ	0xFE2
  5193                           fsr1l	equ	0xFE1
  5194                           bsr	equ	0xFE0
  5195                           indf2	equ	0xFDF
  5196                           postinc2	equ	0xFDE
  5197                           postdec2	equ	0xFDD
  5198                           plusw2	equ	0xFDB
  5199                           fsr2h	equ	0xFDA
  5200                           fsr2l	equ	0xFD9
  5201                           status	equ	0xFD8
  5202                           
  5203 ;; *************** function _USBStdGetDscHandler *****************
  5204 ;; Defined at:
  5205 ;;		line 2043 in file "../src/usb/src/usb_device.c"
  5206 ;; Parameters:    Size  Location     Type
  5207 ;;		None
  5208 ;; Auto vars:     Size  Location     Type
  5209 ;;		None
  5210 ;; Return value:  Size  Location     Type
  5211 ;;		None               void
  5212 ;; Registers used:
  5213 ;;		wreg, fsr1l, fsr1h, status,2, status,0, tblptrl, tblptrh, tblptru, prodl, prodh
  5214 ;; Tracked objects:
  5215 ;;		On entry : 0/0
  5216 ;;		On exit  : 0/0
  5217 ;;		Unchanged: 0/0
  5218 ;; Data sizes:     COMRAM   BANK0   BANK1   BANK2   BANK3   BANK4   BANK5   BANK6   BANK7
  5219 ;;      Params:         0       0       0       0       0       0       0       0       0
  5220 ;;      Locals:         0       0       0       0       0       0       0       0       0
  5221 ;;      Temps:          2       0       0       0       0       0       0       0       0
  5222 ;;      Totals:         2       0       0       0       0       0       0       0       0
  5223 ;;Total ram usage:        2 bytes
  5224 ;; Hardware stack levels used:    1
  5225 ;; This function calls:
  5226 ;;		Nothing
  5227 ;; This function is called by:
  5228 ;;		_USBCheckStdRequest
  5229 ;; This function uses a non-reentrant model
  5230 ;;
  5231                           
  5232                           	psect	text26
  5233  000FAA                     __ptext26:
  5234                           	opt stack 0
  5235  000FAA                     _USBStdGetDscHandler:
  5236                           	opt stack 21
  5237                           
  5238                           ;usb_device.c: 2045: if(SetupPkt.bmRequestType == 0x80)
  5239                           
  5240                           ; BSR set to: 0
  5241                           ;incstack = 0
  5242  000FAA  0E80               	movlw	128
  5243  000FAC  0104               	movlb	4	; () banked
  5244  000FAE  1920               	xorwf	32,w,b	;volatile
  5245  000FB0  A4D8               	btfss	status,2,c
  5246  000FB2  D09A               	goto	i2l487
  5247                           
  5248                           ; BSR set to: 4
  5249                           ;usb_device.c: 2046: {
  5250                           ;usb_device.c: 2047: inPipes[0].info.Val = 0x00 | 0x80 | 0x40;
  5251  000FB4  0EC0               	movlw	192
  5252  000FB6  0100               	movlb	0	; () banked
  5253  000FB8  6F7D               	movwf	(_inPipes+3)& (0+255),b	;volatile
  5254                           
  5255                           ;usb_device.c: 2049: switch(SetupPkt.bDescriptorType)
  5256  000FBA  D089               	goto	i2l2848
  5257  000FBC                     i2l2822:
  5258                           
  5259                           ;usb_device.c: 2055: inPipes[0].pSrc.bRom = (const uint8_t*)&device_dsc;
  5260  000FBC  0ECF               	movlw	low _device_dsc
  5261  000FBE  0100               	movlb	0	; () banked
  5262  000FC0  6F7A               	movwf	_inPipes& (0+255),b	;volatile
  5263  000FC2  0E08               	movlw	high _device_dsc
  5264  000FC4  0100               	movlb	0	; () banked
  5265  000FC6  6F7B               	movwf	(_inPipes+1)& (0+255),b	;volatile
  5266                           
  5267                           ; BSR set to: 0
  5268                           ;usb_device.c: 2057: inPipes[0].wCount.Val = sizeof(device_dsc);
  5269  000FC8  0E00               	movlw	0
  5270  000FCA  0100               	movlb	0	; () banked
  5271  000FCC  6F7F               	movwf	(_inPipes+5)& (0+255),b	;volatile
  5272  000FCE  0E12               	movlw	18
  5273  000FD0  6F7E               	movwf	(_inPipes+4)& (0+255),b	;volatile
  5274                           
  5275                           ;usb_device.c: 2058: break;
  5276  000FD2  D08A               	goto	i2l487
  5277  000FD4                     i2l2826:
  5278                           
  5279                           ;usb_device.c: 2063: if(SetupPkt.bDscIndex < 1)
  5280  000FD4  0104               	movlb	4	; () banked
  5281  000FD6  5122               	movf	34,w,b	;volatile
  5282  000FD8  A4D8               	btfss	status,2,c
  5283  000FDA  D044               	goto	i2l2834
  5284                           
  5285                           ; BSR set to: 4
  5286                           ;usb_device.c: 2064: {
  5287                           ;usb_device.c: 2068: inPipes[0].pSrc.bRom = *(USB_CD_Ptr+SetupPkt.bDscIndex);
  5288  000FDC  0104               	movlb	4	; () banked
  5289  000FDE  5122               	movf	34,w,b	;volatile
  5290  000FE0  0D02               	mullw	2
  5291  000FE2  0E07               	movlw	low _USB_CD_Ptr
  5292  000FE4  24F3               	addwf	prodl,w,c
  5293  000FE6  6EF6               	movwf	tblptrl,c
  5294  000FE8  0E08               	movlw	high _USB_CD_Ptr
  5295  000FEA  20F4               	addwfc	prodh,w,c
  5296  000FEC  6EF7               	movwf	tblptrh,c
  5297  000FEE                     	if	0	;There are less than 3 active tblptr bytes
  5298  000FEE                     	endif
  5299  000FEE  0009               	tblrd		*+
  5300  000FF0  CFF5 F07A          	movff	tablat,_inPipes	;volatile
  5301  000FF4  000A               	tblrd		*-
  5302  000FF6  CFF5 F07B          	movff	tablat,_inPipes+1	;volatile
  5303                           
  5304                           ; BSR set to: 4
  5305                           ;usb_device.c: 2074: inPipes[0].wCount.byte.LB = *(inPipes[0].pSrc.bRom+2);
  5306  000FFA  0E02               	movlw	2
  5307  000FFC  0100               	movlb	0	; () banked
  5308  000FFE  257A               	addwf	_inPipes& (0+255),w,b	;volatile
  5309  001000  6E12               	movwf	??_USBStdGetDscHandler& (0+255),c
  5310  001002  0E00               	movlw	0
  5311  001004  0100               	movlb	0	; () banked
  5312  001006  217B               	addwfc	(_inPipes+1)& (0+255),w,b	;volatile
  5313  001008  6E13               	movwf	(??_USBStdGetDscHandler+1)& (0+255),c
  5314  00100A  C012  FFF6         	movff	??_USBStdGetDscHandler,tblptrl
  5315  00100E  C013  FFF7         	movff	??_USBStdGetDscHandler+1,tblptrh
  5316  001012  6AF8               	clrf	tblptru,c
  5317  001014  0E07               	movlw	(high __ramtop+-1)
  5318  001016  64F7               	cpfsgt	tblptrh,c
  5319  001018  D003               	bra	i2u188_47
  5320  00101A  0008               	tblrd		*
  5321  00101C  50F5               	movf	tablat,w,c
  5322  00101E  D005               	bra	i2u188_40
  5323  001020                     i2u188_47:
  5324  001020  CFF6 FFE1          	movff	tblptrl,fsr1l
  5325  001024  CFF7 FFE2          	movff	tblptrh,fsr1h
  5326  001028  50E7               	movf	indf1,w,c
  5327  00102A                     i2u188_40:
  5328  00102A  0100               	movlb	0	; () banked
  5329  00102C  6F7E               	movwf	(_inPipes+4)& (0+255),b	;volatile
  5330                           
  5331                           ; BSR set to: 0
  5332                           ;usb_device.c: 2075: inPipes[0].wCount.byte.HB = *(inPipes[0].pSrc.bRom+3);
  5333  00102E  0E03               	movlw	3
  5334  001030  0100               	movlb	0	; () banked
  5335  001032  257A               	addwf	_inPipes& (0+255),w,b	;volatile
  5336  001034  6E12               	movwf	??_USBStdGetDscHandler& (0+255),c
  5337  001036  0E00               	movlw	0
  5338  001038  0100               	movlb	0	; () banked
  5339  00103A  217B               	addwfc	(_inPipes+1)& (0+255),w,b	;volatile
  5340  00103C  6E13               	movwf	(??_USBStdGetDscHandler+1)& (0+255),c
  5341  00103E  C012  FFF6         	movff	??_USBStdGetDscHandler,tblptrl
  5342  001042  C013  FFF7         	movff	??_USBStdGetDscHandler+1,tblptrh
  5343  001046  6AF8               	clrf	tblptru,c
  5344  001048  0E07               	movlw	(high __ramtop+-1)
  5345  00104A  64F7               	cpfsgt	tblptrh,c
  5346  00104C  D003               	bra	i2u189_47
  5347  00104E  0008               	tblrd		*
  5348  001050  50F5               	movf	tablat,w,c
  5349  001052  D005               	bra	i2u189_40
  5350  001054                     i2u189_47:
  5351  001054  CFF6 FFE1          	movff	tblptrl,fsr1l
  5352  001058  CFF7 FFE2          	movff	tblptrh,fsr1h
  5353  00105C  50E7               	movf	indf1,w,c
  5354  00105E                     i2u189_40:
  5355  00105E  0100               	movlb	0	; () banked
  5356  001060  6F7F               	movwf	(_inPipes+5)& (0+255),b	;volatile
  5357                           
  5358                           ;usb_device.c: 2076: }
  5359  001062  D042               	goto	i2l487
  5360  001064                     i2l2834:
  5361                           
  5362                           ;usb_device.c: 2077: else
  5363                           ;usb_device.c: 2078: {
  5364                           ;usb_device.c: 2079: inPipes[0].info.Val = 0;
  5365  001064  0E00               	movlw	0
  5366  001066  0100               	movlb	0	; () banked
  5367  001068  6F7D               	movwf	(_inPipes+3)& (0+255),b	;volatile
  5368                           
  5369                           ; BSR set to: 0
  5370                           ;usb_device.c: 2080: }
  5371                           ;usb_device.c: 2081: break;
  5372  00106A  D03E               	goto	i2l487
  5373  00106C                     i2l2836:
  5374                           
  5375                           ;usb_device.c: 2086: if(SetupPkt.bDscIndex<3)
  5376  00106C  0E03               	movlw	3
  5377  00106E  0104               	movlb	4	; () banked
  5378  001070  6122               	cpfslt	34,b	;volatile
  5379  001072  D025               	goto	i2l2842
  5380                           
  5381                           ; BSR set to: 4
  5382                           ;usb_device.c: 2087: {
  5383                           ;usb_device.c: 2089: inPipes[0].pSrc.bRom = *(USB_SD_Ptr+SetupPkt.bDscIndex);
  5384  001074  0104               	movlb	4	; () banked
  5385  001076  5122               	movf	34,w,b	;volatile
  5386  001078  0D02               	mullw	2
  5387  00107A  0E01               	movlw	low _USB_SD_Ptr
  5388  00107C  24F3               	addwf	prodl,w,c
  5389  00107E  6EF6               	movwf	tblptrl,c
  5390  001080  0E08               	movlw	high _USB_SD_Ptr
  5391  001082  20F4               	addwfc	prodh,w,c
  5392  001084  6EF7               	movwf	tblptrh,c
  5393  001086                     	if	0	;There are less than 3 active tblptr bytes
  5394  001086                     	endif
  5395  001086  0009               	tblrd		*+
  5396  001088  CFF5 F07A          	movff	tablat,_inPipes	;volatile
  5397  00108C  000A               	tblrd		*-
  5398  00108E  CFF5 F07B          	movff	tablat,_inPipes+1	;volatile
  5399                           
  5400                           ; BSR set to: 4
  5401                           ;usb_device.c: 2091: inPipes[0].wCount.Val = *inPipes[0].pSrc.bRom;
  5402  001092  C07A  FFF6         	movff	_inPipes,tblptrl	;volatile
  5403  001096  C07B  FFF7         	movff	_inPipes+1,tblptrh	;volatile
  5404  00109A  6AF8               	clrf	tblptru,c
  5405  00109C  0E07               	movlw	(high __ramtop+-1)
  5406  00109E  64F7               	cpfsgt	tblptrh,c
  5407  0010A0  D003               	bra	i2u191_47
  5408  0010A2  0008               	tblrd		*
  5409  0010A4  50F5               	movf	tablat,w,c
  5410  0010A6  D005               	bra	i2u191_40
  5411  0010A8                     i2u191_47:
  5412  0010A8  CFF6 FFE1          	movff	tblptrl,fsr1l
  5413  0010AC  CFF7 FFE2          	movff	tblptrh,fsr1h
  5414  0010B0  50E7               	movf	indf1,w,c
  5415  0010B2                     i2u191_40:
  5416  0010B2  6E12               	movwf	??_USBStdGetDscHandler& (0+255),c
  5417  0010B4  5012               	movf	??_USBStdGetDscHandler,w,c
  5418  0010B6  0100               	movlb	0	; () banked
  5419  0010B8  6F7E               	movwf	(_inPipes+4)& (0+255),b	;volatile
  5420  0010BA  6B7F               	clrf	(_inPipes+5)& (0+255),b	;volatile
  5421                           
  5422                           ;usb_device.c: 2092: }
  5423  0010BC  D015               	goto	i2l487
  5424  0010BE                     i2l2842:
  5425                           
  5426                           ;usb_device.c: 2102: else
  5427                           ;usb_device.c: 2103: {
  5428                           ;usb_device.c: 2104: inPipes[0].info.Val = 0;
  5429  0010BE  0E00               	movlw	0
  5430  0010C0  0100               	movlb	0	; () banked
  5431  0010C2  6F7D               	movwf	(_inPipes+3)& (0+255),b	;volatile
  5432                           
  5433                           ; BSR set to: 0
  5434                           ;usb_device.c: 2105: }
  5435                           ;usb_device.c: 2106: break;
  5436  0010C4  D011               	goto	i2l487
  5437  0010C6                     i2l2844:
  5438                           
  5439                           ;usb_device.c: 2108: inPipes[0].info.Val = 0;
  5440  0010C6  0E00               	movlw	0
  5441  0010C8  0100               	movlb	0	; () banked
  5442  0010CA  6F7D               	movwf	(_inPipes+3)& (0+255),b	;volatile
  5443                           
  5444                           ; BSR set to: 0
  5445                           ;usb_device.c: 2110: }
  5446                           
  5447                           ;usb_device.c: 2109: break;
  5448  0010CC  D00D               	goto	i2l487
  5449  0010CE                     i2l2848:
  5450                           
  5451                           ; BSR set to: 0
  5452  0010CE  0104               	movlb	4	; () banked
  5453  0010D0  5123               	movf	35,w,b	;volatile
  5454                           
  5455                           ; Switch size 1, requested type "space"
  5456                           ; Number of cases is 3, Range of values is 1 to 3
  5457                           ; switch strategies available:
  5458                           ; Name         Instructions Cycles
  5459                           ; simple_byte           10     6 (average)
  5460                           ;	Chosen strategy is simple_byte
  5461  0010D2  0A01               	xorlw	1	; case 1
  5462  0010D4  B4D8               	btfsc	status,2,c
  5463  0010D6  D772               	goto	i2l2822
  5464  0010D8  0A03               	xorlw	3	; case 2
  5465  0010DA  B4D8               	btfsc	status,2,c
  5466  0010DC  D77B               	goto	i2l2826
  5467  0010DE  0A01               	xorlw	1	; case 3
  5468  0010E0  B4D8               	btfsc	status,2,c
  5469  0010E2  D7C4               	goto	i2l2836
  5470  0010E4  D7F0               	goto	i2l2844
  5471                           
  5472                           ; BSR set to: 4
  5473  0010E6  D000               	goto	i2l487
  5474  0010E8                     i2l487:
  5475  0010E8  0012               	return		;funcret
  5476  0010EA                     __end_of_USBStdGetDscHandler:
  5477                           	opt stack 0
  5478                           pclatu	equ	0xFFB
  5479                           pclath	equ	0xFFA
  5480                           tblptru	equ	0xFF8
  5481                           tblptrh	equ	0xFF7
  5482                           tblptrl	equ	0xFF6
  5483                           tablat	equ	0xFF5
  5484                           prodh	equ	0xFF4
  5485                           prodl	equ	0xFF3
  5486                           intcon	equ	0xFF2
  5487                           postinc0	equ	0xFEE
  5488                           fsr0h	equ	0xFEA
  5489                           fsr0l	equ	0xFE9
  5490                           wreg	equ	0xFE8
  5491                           indf1	equ	0xFE7
  5492                           fsr1h	equ	0xFE2
  5493                           fsr1l	equ	0xFE1
  5494                           bsr	equ	0xFE0
  5495                           indf2	equ	0xFDF
  5496                           postinc2	equ	0xFDE
  5497                           postdec2	equ	0xFDD
  5498                           plusw2	equ	0xFDB
  5499                           fsr2h	equ	0xFDA
  5500                           fsr2l	equ	0xFD9
  5501                           status	equ	0xFD8
  5502                           
  5503 ;; *************** function _USBStdFeatureReqHandler *****************
  5504 ;; Defined at:
  5505 ;;		line 2757 in file "../src/usb/src/usb_device.c"
  5506 ;; Parameters:    Size  Location     Type
  5507 ;;		None
  5508 ;; Auto vars:     Size  Location     Type
  5509 ;;  p               2   41[COMRAM] PTR struct __BDT
  5510 ;;		 -> BDT(32), NULL(0), 
  5511 ;;  pUEP            2   38[COMRAM] PTR unsigned char 
  5512 ;;		 -> UEP0(1), 
  5513 ;;  current_ep_d    1   40[COMRAM] struct .
  5514 ;; Return value:  Size  Location     Type
  5515 ;;		None               void
  5516 ;; Registers used:
  5517 ;;		wreg, fsr2l, fsr2h, status,2, status,0, prodl, prodh, cstack
  5518 ;; Tracked objects:
  5519 ;;		On entry : 0/0
  5520 ;;		On exit  : 0/0
  5521 ;;		Unchanged: 0/0
  5522 ;; Data sizes:     COMRAM   BANK0   BANK1   BANK2   BANK3   BANK4   BANK5   BANK6   BANK7
  5523 ;;      Params:         0       0       0       0       0       0       0       0       0
  5524 ;;      Locals:         5       0       0       0       0       0       0       0       0
  5525 ;;      Temps:          1       0       0       0       0       0       0       0       0
  5526 ;;      Totals:         6       0       0       0       0       0       0       0       0
  5527 ;;Total ram usage:        6 bytes
  5528 ;; Hardware stack levels used:    1
  5529 ;; Hardware stack levels required when called:    4
  5530 ;; This function calls:
  5531 ;;		_USER_USB_CALLBACK_EVENT_HANDLER
  5532 ;; This function is called by:
  5533 ;;		_USBCheckStdRequest
  5534 ;; This function uses a non-reentrant model
  5535 ;;
  5536                           
  5537                           	psect	text27
  5538  0008E6                     __ptext27:
  5539                           	opt stack 0
  5540  0008E6                     _USBStdFeatureReqHandler:
  5541                           	opt stack 17
  5542                           
  5543                           ;usb_device.c: 2759: BDT_ENTRY *p;
  5544                           ;usb_device.c: 2760: EP_STATUS current_ep_data;
  5545                           ;usb_device.c: 2764: unsigned char* pUEP;
  5546                           ;usb_device.c: 2802: if((SetupPkt.bFeature == 1)&&
  5547                           ;usb_device.c: 2803: (SetupPkt.Recipient == (0x00)))
  5548                           
  5549                           ;incstack = 0
  5550  0008E6  0104               	movlb	4	; () banked
  5551  0008E8  0522               	decf	34,w,b	;volatile
  5552  0008EA  A4D8               	btfss	status,2,c
  5553  0008EC  D012               	goto	i2l570
  5554                           
  5555                           ; BSR set to: 4
  5556  0008EE  0104               	movlb	4	; () banked
  5557  0008F0  5120               	movf	32,w,b	;volatile
  5558  0008F2  0B1F               	andlw	31
  5559  0008F4  0900               	iorlw	0
  5560  0008F6  A4D8               	btfss	status,2,c
  5561  0008F8  D00C               	goto	i2l570
  5562                           
  5563                           ; BSR set to: 4
  5564                           ;usb_device.c: 2804: {
  5565                           ;usb_device.c: 2805: inPipes[0].info.bits.busy = 1;
  5566  0008FA  0100               	movlb	0	; () banked
  5567  0008FC  8F7D               	bsf	(_inPipes+3)& (0+255),7,b	;volatile
  5568                           
  5569                           ; BSR set to: 0
  5570                           ;usb_device.c: 2806: if(SetupPkt.bRequest == 3)
  5571  0008FE  0E03               	movlw	3
  5572  000900  0104               	movlb	4	; () banked
  5573  000902  1921               	xorwf	33,w,b	;volatile
  5574  000904  A4D8               	btfss	status,2,c
  5575  000906  D002               	goto	i2l2888
  5576                           
  5577                           ; BSR set to: 4
  5578                           ;usb_device.c: 2807: RemoteWakeup = 1;
  5579  000908  0E01               	movlw	1
  5580  00090A  D001               	goto	L8
  5581  00090C                     i2l2888:
  5582                           
  5583                           ; BSR set to: 4
  5584                           ;usb_device.c: 2808: else
  5585                           ;usb_device.c: 2809: RemoteWakeup = 0;
  5586  00090C  0E00               	movlw	0
  5587  00090E                     L8:
  5588  00090E  6E3B               	movwf	_RemoteWakeup,c	;volatile
  5589  000910  D000               	goto	i2l570
  5590  000912                     i2l570:
  5591                           
  5592                           ; BSR set to: 4
  5593                           ;usb_device.c: 2810: }
  5594                           ;usb_device.c: 2813: if((SetupPkt.bFeature == 0)&&
  5595                           ;usb_device.c: 2814: (SetupPkt.Recipient == (0x02))&&
  5596                           ;usb_device.c: 2815: (SetupPkt.EPNum != 0) && (SetupPkt.EPNum <= 1)&&
  5597                           ;usb_device.c: 2816: (USBDeviceState == CONFIGURED_STATE))
  5598  000912  0104               	movlb	4	; () banked
  5599  000914  5122               	movf	34,w,b	;volatile
  5600  000916  A4D8               	btfss	status,2,c
  5601  000918  D131               	goto	i2l593
  5602                           
  5603                           ; BSR set to: 4
  5604  00091A  0104               	movlb	4	; () banked
  5605  00091C  5120               	movf	32,w,b	;volatile
  5606  00091E  0B1F               	andlw	31
  5607  000920  0A02               	xorlw	2
  5608  000922  A4D8               	btfss	status,2,c
  5609  000924  D12B               	goto	i2l593
  5610                           
  5611                           ; BSR set to: 4
  5612  000926  0104               	movlb	4	; () banked
  5613  000928  5124               	movf	36,w,b	;volatile
  5614  00092A  0B0F               	andlw	15
  5615  00092C  0900               	iorlw	0
  5616  00092E  B4D8               	btfsc	status,2,c
  5617  000930  D125               	goto	i2l593
  5618                           
  5619                           ; BSR set to: 4
  5620  000932  0104               	movlb	4	; () banked
  5621  000934  5124               	movf	36,w,b	;volatile
  5622  000936  0B0F               	andlw	15
  5623  000938  6E26               	movwf	??_USBStdFeatureReqHandler& (0+255),c
  5624  00093A  0E02               	movlw	2
  5625  00093C  6026               	cpfslt	??_USBStdFeatureReqHandler,c
  5626  00093E  D11E               	goto	i2l593
  5627                           
  5628                           ; BSR set to: 4
  5629  000940  0E20               	movlw	32
  5630  000942  0100               	movlb	0	; () banked
  5631  000944  1978               	xorwf	_USBDeviceState& (0+255),w,b	;volatile
  5632  000946  A4D8               	btfss	status,2,c
  5633  000948  D119               	goto	i2l593
  5634                           
  5635                           ; BSR set to: 0
  5636                           ;usb_device.c: 2817: {
  5637                           ;usb_device.c: 2820: inPipes[0].info.bits.busy = 1;
  5638  00094A  0100               	movlb	0	; () banked
  5639  00094C  8F7D               	bsf	(_inPipes+3)& (0+255),7,b	;volatile
  5640                           
  5641                           ;usb_device.c: 2823: if(SetupPkt.EPDir == 0)
  5642  00094E  0104               	movlb	4	; () banked
  5643  000950  BF24               	btfsc	36,7,b	;volatile
  5644  000952  D01B               	goto	i2l2902
  5645                           
  5646                           ; BSR set to: 4
  5647                           ;usb_device.c: 2824: {
  5648                           ;usb_device.c: 2825: p = (BDT_ENTRY*)pBDTEntryOut[SetupPkt.EPNum];
  5649  000954  0104               	movlb	4	; () banked
  5650  000956  5124               	movf	36,w,b	;volatile
  5651  000958  0B0F               	andlw	15
  5652  00095A  6E26               	movwf	??_USBStdFeatureReqHandler& (0+255),c
  5653  00095C  5026               	movf	??_USBStdFeatureReqHandler,w,c
  5654  00095E  0D02               	mullw	2
  5655  000960  0E6C               	movlw	low _pBDTEntryOut
  5656  000962  24F3               	addwf	prodl,w,c
  5657  000964  6ED9               	movwf	fsr2l,c
  5658  000966  0E00               	movlw	high _pBDTEntryOut
  5659  000968  20F4               	addwfc	prodh,w,c
  5660  00096A  6EDA               	movwf	fsr2h,c
  5661  00096C  CFDE F02A          	movff	postinc2,USBStdFeatureReqHandler@p
  5662  000970  CFDD F02B          	movff	postdec2,USBStdFeatureReqHandler@p+1
  5663                           
  5664                           ;usb_device.c: 2826: current_ep_data.Val = ep_data_out[SetupPkt.EPNum].Val;
  5665  000974  0104               	movlb	4	; () banked
  5666  000976  5124               	movf	36,w,b	;volatile
  5667  000978  0B0F               	andlw	15
  5668  00097A  6E26               	movwf	??_USBStdFeatureReqHandler& (0+255),c
  5669  00097C  5026               	movf	??_USBStdFeatureReqHandler,w,c
  5670  00097E  0D01               	mullw	1
  5671  000980  0E76               	movlw	low _ep_data_out
  5672  000982  24F3               	addwf	prodl,w,c
  5673  000984  6ED9               	movwf	fsr2l,c
  5674  000986  0E00               	movlw	high _ep_data_out
  5675  000988  D01A               	goto	L9
  5676  00098A                     i2l2902:
  5677                           
  5678                           ; BSR set to: 4
  5679                           ;usb_device.c: 2828: else
  5680                           ;usb_device.c: 2829: {
  5681                           ;usb_device.c: 2830: p = (BDT_ENTRY*)pBDTEntryIn[SetupPkt.EPNum];
  5682  00098A  0104               	movlb	4	; () banked
  5683  00098C  5124               	movf	36,w,b	;volatile
  5684  00098E  0B0F               	andlw	15
  5685  000990  6E26               	movwf	??_USBStdFeatureReqHandler& (0+255),c
  5686  000992  5026               	movf	??_USBStdFeatureReqHandler,w,c
  5687  000994  0D02               	mullw	2
  5688  000996  0E68               	movlw	low _pBDTEntryIn
  5689  000998  24F3               	addwf	prodl,w,c
  5690  00099A  6ED9               	movwf	fsr2l,c
  5691  00099C  0E00               	movlw	high _pBDTEntryIn
  5692  00099E  20F4               	addwfc	prodh,w,c
  5693  0009A0  6EDA               	movwf	fsr2h,c
  5694  0009A2  CFDE F02A          	movff	postinc2,USBStdFeatureReqHandler@p
  5695  0009A6  CFDD F02B          	movff	postdec2,USBStdFeatureReqHandler@p+1
  5696                           
  5697                           ;usb_device.c: 2831: current_ep_data.Val = ep_data_in[SetupPkt.EPNum].Val;
  5698  0009AA  0104               	movlb	4	; () banked
  5699  0009AC  5124               	movf	36,w,b	;volatile
  5700  0009AE  0B0F               	andlw	15
  5701  0009B0  6E26               	movwf	??_USBStdFeatureReqHandler& (0+255),c
  5702  0009B2  5026               	movf	??_USBStdFeatureReqHandler,w,c
  5703  0009B4  0D01               	mullw	1
  5704  0009B6  0E74               	movlw	low _ep_data_in
  5705  0009B8  24F3               	addwf	prodl,w,c
  5706  0009BA  6ED9               	movwf	fsr2l,c
  5707  0009BC  0E00               	movlw	high _ep_data_in
  5708  0009BE                     L9:
  5709  0009BE  20F4               	addwfc	prodh,w,c
  5710  0009C0  6EDA               	movwf	fsr2h,c
  5711  0009C2  50DF               	movf	indf2,w,c
  5712  0009C4  6E29               	movwf	USBStdFeatureReqHandler@current_ep_data,c
  5713  0009C6  D000               	goto	i2l2904
  5714  0009C8                     i2l2904:
  5715                           
  5716                           ; BSR set to: 4
  5717                           ;usb_device.c: 2832: }
  5718                           ;usb_device.c: 2838: if(current_ep_data.bits.ping_pong_state == 0)
  5719  0009C8  B029               	btfsc	USBStdFeatureReqHandler@current_ep_data,0,c
  5720  0009CA  D002               	goto	i2l2908
  5721                           
  5722                           ; BSR set to: 4
  5723                           ;usb_device.c: 2839: {
  5724                           ;usb_device.c: 2840: {((uint8_t_VAL*)&p)->Val &= ~0x0004;};
  5725  0009CC  942A               	bcf	USBStdFeatureReqHandler@p,2,c
  5726                           
  5727                           ;usb_device.c: 2841: }
  5728  0009CE  D002               	goto	i2l2910
  5729  0009D0                     i2l2908:
  5730                           
  5731                           ; BSR set to: 4
  5732                           ;usb_device.c: 2842: else
  5733                           ;usb_device.c: 2843: {
  5734                           ;usb_device.c: 2844: {((uint8_t_VAL*)&p)->Val |= 0x0004;};
  5735  0009D0  842A               	bsf	USBStdFeatureReqHandler@p,2,c
  5736  0009D2  D000               	goto	i2l2910
  5737  0009D4                     i2l2910:
  5738                           
  5739                           ; BSR set to: 4
  5740                           ;usb_device.c: 2845: }
  5741                           ;usb_device.c: 2850: if(SetupPkt.EPDir == 0)
  5742  0009D4  0104               	movlb	4	; () banked
  5743  0009D6  BF24               	btfsc	36,7,b	;volatile
  5744  0009D8  D00B               	goto	i2l2914
  5745                           
  5746                           ; BSR set to: 4
  5747                           ;usb_device.c: 2851: {
  5748                           ;usb_device.c: 2852: pBDTEntryOut[SetupPkt.EPNum] = (volatile BDT_ENTRY *)p;
  5749  0009DA  0104               	movlb	4	; () banked
  5750  0009DC  5124               	movf	36,w,b	;volatile
  5751  0009DE  0B0F               	andlw	15
  5752  0009E0  6E26               	movwf	??_USBStdFeatureReqHandler& (0+255),c
  5753  0009E2  5026               	movf	??_USBStdFeatureReqHandler,w,c
  5754  0009E4  0D02               	mullw	2
  5755  0009E6  0E6C               	movlw	low _pBDTEntryOut
  5756  0009E8  24F3               	addwf	prodl,w,c
  5757  0009EA  6ED9               	movwf	fsr2l,c
  5758  0009EC  0E00               	movlw	high _pBDTEntryOut
  5759  0009EE  D00A               	goto	L10
  5760  0009F0                     i2l2914:
  5761                           
  5762                           ; BSR set to: 4
  5763                           ;usb_device.c: 2854: else
  5764                           ;usb_device.c: 2855: {
  5765                           ;usb_device.c: 2856: pBDTEntryIn[SetupPkt.EPNum] = (volatile BDT_ENTRY *)p;
  5766  0009F0  0104               	movlb	4	; () banked
  5767  0009F2  5124               	movf	36,w,b	;volatile
  5768  0009F4  0B0F               	andlw	15
  5769  0009F6  6E26               	movwf	??_USBStdFeatureReqHandler& (0+255),c
  5770  0009F8  5026               	movf	??_USBStdFeatureReqHandler,w,c
  5771  0009FA  0D02               	mullw	2
  5772  0009FC  0E68               	movlw	low _pBDTEntryIn
  5773  0009FE  24F3               	addwf	prodl,w,c
  5774  000A00  6ED9               	movwf	fsr2l,c
  5775  000A02  0E00               	movlw	high _pBDTEntryIn
  5776  000A04                     L10:
  5777  000A04  20F4               	addwfc	prodh,w,c
  5778  000A06  6EDA               	movwf	fsr2h,c
  5779  000A08  C02A  FFDE         	movff	USBStdFeatureReqHandler@p,postinc2
  5780  000A0C  C02B  FFDD         	movff	USBStdFeatureReqHandler@p+1,postdec2
  5781  000A10  D000               	goto	i2l2916
  5782  000A12                     i2l2916:
  5783                           
  5784                           ; BSR set to: 4
  5785                           ;usb_device.c: 2857: }
  5786                           ;usb_device.c: 2860: if(SetupPkt.bRequest == 3)
  5787  000A12  0E03               	movlw	3
  5788  000A14  0104               	movlb	4	; () banked
  5789  000A16  1921               	xorwf	33,w,b	;volatile
  5790  000A18  A4D8               	btfss	status,2,c
  5791  000A1A  D030               	goto	i2l2930
  5792                           
  5793                           ; BSR set to: 4
  5794                           ;usb_device.c: 2861: {
  5795                           ;usb_device.c: 2862: if(p->STAT.UOWN == 1)
  5796  000A1C  C02A  FFD9         	movff	USBStdFeatureReqHandler@p,fsr2l
  5797  000A20  C02B  FFDA         	movff	USBStdFeatureReqHandler@p+1,fsr2h
  5798  000A24  AEDF               	btfss	indf2,7,c
  5799  000A26  D01D               	goto	i2l2926
  5800                           
  5801                           ; BSR set to: 4
  5802                           ;usb_device.c: 2863: {
  5803                           ;usb_device.c: 2866: if(SetupPkt.EPDir == 0)
  5804  000A28  0104               	movlb	4	; () banked
  5805  000A2A  BF24               	btfsc	36,7,b	;volatile
  5806  000A2C  D00B               	goto	i2l2924
  5807                           
  5808                           ; BSR set to: 4
  5809                           ;usb_device.c: 2867: {
  5810                           ;usb_device.c: 2868: ep_data_out[SetupPkt.EPNum].bits.transfer_terminated = 1;
  5811  000A2E  0104               	movlb	4	; () banked
  5812  000A30  5124               	movf	36,w,b	;volatile
  5813  000A32  0B0F               	andlw	15
  5814  000A34  6E26               	movwf	??_USBStdFeatureReqHandler& (0+255),c
  5815  000A36  5026               	movf	??_USBStdFeatureReqHandler,w,c
  5816  000A38  0D01               	mullw	1
  5817  000A3A  0E76               	movlw	low _ep_data_out
  5818  000A3C  24F3               	addwf	prodl,w,c
  5819  000A3E  6ED9               	movwf	fsr2l,c
  5820  000A40  0E00               	movlw	high _ep_data_out
  5821  000A42  D00A               	goto	L11
  5822  000A44                     i2l2924:
  5823                           
  5824                           ;usb_device.c: 2870: else
  5825                           ;usb_device.c: 2871: {
  5826                           ;usb_device.c: 2872: ep_data_in[SetupPkt.EPNum].bits.transfer_terminated = 1;
  5827  000A44  0104               	movlb	4	; () banked
  5828  000A46  5124               	movf	36,w,b	;volatile
  5829  000A48  0B0F               	andlw	15
  5830  000A4A  6E26               	movwf	??_USBStdFeatureReqHandler& (0+255),c
  5831  000A4C  5026               	movf	??_USBStdFeatureReqHandler,w,c
  5832  000A4E  0D01               	mullw	1
  5833  000A50  0E74               	movlw	low _ep_data_in
  5834  000A52  24F3               	addwf	prodl,w,c
  5835  000A54  6ED9               	movwf	fsr2l,c
  5836  000A56  0E00               	movlw	high _ep_data_in
  5837  000A58                     L11:
  5838  000A58  20F4               	addwfc	prodh,w,c
  5839  000A5A  6EDA               	movwf	fsr2h,c
  5840  000A5C  0100               	movlb	0	; () banked
  5841  000A5E  82DF               	bsf	indf2,1,c
  5842                           
  5843                           ; BSR set to: 0
  5844  000A60  D000               	goto	i2l2926
  5845  000A62                     i2l2926:
  5846                           
  5847                           ;usb_device.c: 2873: }
  5848                           ;usb_device.c: 2874: }
  5849                           ;usb_device.c: 2877: p->STAT.Val |= 0x04;
  5850  000A62  C02A  FFD9         	movff	USBStdFeatureReqHandler@p,fsr2l
  5851  000A66  C02B  FFDA         	movff	USBStdFeatureReqHandler@p+1,fsr2h
  5852  000A6A  0E00               	movlw	0
  5853  000A6C  84DB               	bsf	plusw2,2,c
  5854                           
  5855                           ;usb_device.c: 2878: p->STAT.Val |= 0x80;
  5856  000A6E  C02A  FFD9         	movff	USBStdFeatureReqHandler@p,fsr2l
  5857  000A72  C02B  FFDA         	movff	USBStdFeatureReqHandler@p+1,fsr2h
  5858  000A76  0E00               	movlw	0
  5859  000A78  8EDB               	bsf	plusw2,7,c
  5860                           
  5861                           ;usb_device.c: 2879: }
  5862  000A7A  D080               	goto	i2l593
  5863  000A7C                     i2l2930:
  5864                           
  5865                           ;usb_device.c: 2880: else
  5866                           ;usb_device.c: 2881: {
  5867                           ;usb_device.c: 2885: {((uint8_t_VAL*)&p)->Val ^= 0x0004;};
  5868  000A7C  0E04               	movlw	4
  5869  000A7E  1A2A               	xorwf	USBStdFeatureReqHandler@p,f,c
  5870                           
  5871                           ;usb_device.c: 2887: if(p->STAT.UOWN == 1)
  5872  000A80  C02A  FFD9         	movff	USBStdFeatureReqHandler@p,fsr2l
  5873  000A84  C02B  FFDA         	movff	USBStdFeatureReqHandler@p+1,fsr2h
  5874  000A88  AEDF               	btfss	indf2,7,c
  5875  000A8A  D01B               	goto	i2l2940
  5876                           
  5877                           ;usb_device.c: 2888: {
  5878                           ;usb_device.c: 2891: p->STAT.Val &= (~0x80);
  5879  000A8C  C02A  FFD9         	movff	USBStdFeatureReqHandler@p,fsr2l
  5880  000A90  C02B  FFDA         	movff	USBStdFeatureReqHandler@p+1,fsr2h
  5881  000A94  0E7F               	movlw	127
  5882  000A96  16DF               	andwf	indf2,f,c
  5883                           
  5884                           ;usb_device.c: 2892: p->STAT.Val |= 0x40;
  5885  000A98  C02A  FFD9         	movff	USBStdFeatureReqHandler@p,fsr2l
  5886  000A9C  C02B  FFDA         	movff	USBStdFeatureReqHandler@p+1,fsr2h
  5887  000AA0  0E00               	movlw	0
  5888  000AA2  8CDB               	bsf	plusw2,6,c
  5889                           
  5890                           ;usb_device.c: 2893: USER_USB_CALLBACK_EVENT_HANDLER(EVENT_TRANSFER_TERMINATED,p,sizeof(
      +                          p));
  5891  000AA4  0E00               	movlw	0
  5892  000AA6  6E1F               	movwf	USER_USB_CALLBACK_EVENT_HANDLER@event+1,c
  5893  000AA8  0E05               	movlw	5
  5894  000AAA  6E1E               	movwf	USER_USB_CALLBACK_EVENT_HANDLER@event,c
  5895  000AAC  C02A  F020         	movff	USBStdFeatureReqHandler@p,USER_USB_CALLBACK_EVENT_HANDLER@pdata
  5896  000AB0  C02B  F021         	movff	USBStdFeatureReqHandler@p+1,USER_USB_CALLBACK_EVENT_HANDLER@pdata+1
  5897  000AB4  0E00               	movlw	0
  5898  000AB6  6E23               	movwf	USER_USB_CALLBACK_EVENT_HANDLER@size+1,c
  5899  000AB8  0E02               	movlw	2
  5900  000ABA  6E22               	movwf	USER_USB_CALLBACK_EVENT_HANDLER@size,c
  5901  000ABC  EC37  F00F         	call	_USER_USB_CALLBACK_EVENT_HANDLER	;wreg free
  5902                           
  5903                           ;usb_device.c: 2894: }
  5904  000AC0  D007               	goto	i2l2942
  5905  000AC2                     i2l2940:
  5906                           
  5907                           ;usb_device.c: 2895: else
  5908                           ;usb_device.c: 2896: {
  5909                           ;usb_device.c: 2898: p->STAT.Val |= 0x40;
  5910  000AC2  C02A  FFD9         	movff	USBStdFeatureReqHandler@p,fsr2l
  5911  000AC6  C02B  FFDA         	movff	USBStdFeatureReqHandler@p+1,fsr2h
  5912  000ACA  0E00               	movlw	0
  5913  000ACC  8CDB               	bsf	plusw2,6,c
  5914  000ACE  D000               	goto	i2l2942
  5915  000AD0                     i2l2942:
  5916                           
  5917                           ;usb_device.c: 2899: }
  5918                           ;usb_device.c: 2903: {((uint8_t_VAL*)&p)->Val ^= 0x0004;};
  5919  000AD0  0E04               	movlw	4
  5920  000AD2  1A2A               	xorwf	USBStdFeatureReqHandler@p,f,c
  5921                           
  5922                           ;usb_device.c: 2909: if((current_ep_data.bits.transfer_terminated != 0) || (p->STAT.UOWN
      +                           == 1))
  5923  000AD4  B229               	btfsc	USBStdFeatureReqHandler@current_ep_data,1,c
  5924  000AD6  D006               	goto	i2l589
  5925  000AD8  C02A  FFD9         	movff	USBStdFeatureReqHandler@p,fsr2l
  5926  000ADC  C02B  FFDA         	movff	USBStdFeatureReqHandler@p+1,fsr2h
  5927  000AE0  AEDF               	btfss	indf2,7,c
  5928  000AE2  D032               	goto	i2l2956
  5929  000AE4                     i2l589:
  5930                           
  5931                           ;usb_device.c: 2910: {
  5932                           ;usb_device.c: 2911: if(SetupPkt.EPDir == 0)
  5933  000AE4  0104               	movlb	4	; () banked
  5934  000AE6  BF24               	btfsc	36,7,b	;volatile
  5935  000AE8  D00B               	goto	i2l2950
  5936                           
  5937                           ; BSR set to: 4
  5938                           ;usb_device.c: 2912: {
  5939                           ;usb_device.c: 2913: ep_data_out[SetupPkt.EPNum].bits.transfer_terminated = 0;
  5940  000AEA  0104               	movlb	4	; () banked
  5941  000AEC  5124               	movf	36,w,b	;volatile
  5942  000AEE  0B0F               	andlw	15
  5943  000AF0  6E26               	movwf	??_USBStdFeatureReqHandler& (0+255),c
  5944  000AF2  5026               	movf	??_USBStdFeatureReqHandler,w,c
  5945  000AF4  0D01               	mullw	1
  5946  000AF6  0E76               	movlw	low _ep_data_out
  5947  000AF8  24F3               	addwf	prodl,w,c
  5948  000AFA  6ED9               	movwf	fsr2l,c
  5949  000AFC  0E00               	movlw	high _ep_data_out
  5950  000AFE  D00A               	goto	L12
  5951  000B00                     i2l2950:
  5952                           
  5953                           ;usb_device.c: 2915: else
  5954                           ;usb_device.c: 2916: {
  5955                           ;usb_device.c: 2917: ep_data_in[SetupPkt.EPNum].bits.transfer_terminated = 0;
  5956  000B00  0104               	movlb	4	; () banked
  5957  000B02  5124               	movf	36,w,b	;volatile
  5958  000B04  0B0F               	andlw	15
  5959  000B06  6E26               	movwf	??_USBStdFeatureReqHandler& (0+255),c
  5960  000B08  5026               	movf	??_USBStdFeatureReqHandler,w,c
  5961  000B0A  0D01               	mullw	1
  5962  000B0C  0E74               	movlw	low _ep_data_in
  5963  000B0E  24F3               	addwf	prodl,w,c
  5964  000B10  6ED9               	movwf	fsr2l,c
  5965  000B12  0E00               	movlw	high _ep_data_in
  5966  000B14                     L12:
  5967  000B14  20F4               	addwfc	prodh,w,c
  5968  000B16  6EDA               	movwf	fsr2h,c
  5969  000B18  0100               	movlb	0	; () banked
  5970  000B1A  92DF               	bcf	indf2,1,c
  5971  000B1C  D000               	goto	i2l2952
  5972  000B1E                     i2l2952:
  5973                           
  5974                           ; BSR set to: 0
  5975                           ;usb_device.c: 2918: }
  5976                           ;usb_device.c: 2920: p->STAT.Val &= ~(0x80 | 0x40 | 0x04);
  5977  000B1E  C02A  FFD9         	movff	USBStdFeatureReqHandler@p,fsr2l
  5978  000B22  C02B  FFDA         	movff	USBStdFeatureReqHandler@p+1,fsr2h
  5979  000B26  0E3B               	movlw	59
  5980  000B28  16DF               	andwf	indf2,f,c
  5981                           
  5982                           ; BSR set to: 0
  5983                           ;usb_device.c: 2923: USER_USB_CALLBACK_EVENT_HANDLER(EVENT_TRANSFER_TERMINATED,p,sizeof(
      +                          p));
  5984  000B2A  0E00               	movlw	0
  5985  000B2C  6E1F               	movwf	USER_USB_CALLBACK_EVENT_HANDLER@event+1,c
  5986  000B2E  0E05               	movlw	5
  5987  000B30  6E1E               	movwf	USER_USB_CALLBACK_EVENT_HANDLER@event,c
  5988  000B32  C02A  F020         	movff	USBStdFeatureReqHandler@p,USER_USB_CALLBACK_EVENT_HANDLER@pdata
  5989  000B36  C02B  F021         	movff	USBStdFeatureReqHandler@p+1,USER_USB_CALLBACK_EVENT_HANDLER@pdata+1
  5990  000B3A  0E00               	movlw	0
  5991  000B3C  6E23               	movwf	USER_USB_CALLBACK_EVENT_HANDLER@size+1,c
  5992  000B3E  0E02               	movlw	2
  5993  000B40  6E22               	movwf	USER_USB_CALLBACK_EVENT_HANDLER@size,c
  5994  000B42  EC37  F00F         	call	_USER_USB_CALLBACK_EVENT_HANDLER	;wreg free
  5995                           
  5996                           ;usb_device.c: 2924: }
  5997  000B46  D007               	goto	i2l2958
  5998  000B48                     i2l2956:
  5999                           
  6000                           ;usb_device.c: 2925: else
  6001                           ;usb_device.c: 2926: {
  6002                           ;usb_device.c: 2928: p->STAT.Val &= ~(0x80 | 0x40 | 0x04);
  6003  000B48  C02A  FFD9         	movff	USBStdFeatureReqHandler@p,fsr2l
  6004  000B4C  C02B  FFDA         	movff	USBStdFeatureReqHandler@p+1,fsr2h
  6005  000B50  0E3B               	movlw	59
  6006  000B52  16DF               	andwf	indf2,f,c
  6007  000B54  D000               	goto	i2l2958
  6008  000B56                     i2l2958:
  6009                           
  6010                           ;usb_device.c: 2929: }
  6011                           ;usb_device.c: 2976: pUEP = (unsigned char*)(&UEP0+SetupPkt.EPNum);
  6012  000B56  0104               	movlb	4	; () banked
  6013  000B58  5124               	movf	36,w,b	;volatile
  6014  000B5A  0B0F               	andlw	15
  6015  000B5C  6E26               	movwf	??_USBStdFeatureReqHandler& (0+255),c
  6016  000B5E  5026               	movf	??_USBStdFeatureReqHandler,w,c
  6017  000B60  0D01               	mullw	1
  6018  000B62  0E70               	movlw	112
  6019  000B64  24F3               	addwf	prodl,w,c
  6020  000B66  6E27               	movwf	USBStdFeatureReqHandler@pUEP,c
  6021  000B68  0E0F               	movlw	15
  6022  000B6A  20F4               	addwfc	prodh,w,c
  6023  000B6C  6E28               	movwf	USBStdFeatureReqHandler@pUEP+1,c
  6024                           
  6025                           ; BSR set to: 4
  6026                           ;usb_device.c: 2980: *pUEP &= ~0x0001;
  6027  000B6E  C027  FFD9         	movff	USBStdFeatureReqHandler@pUEP,fsr2l
  6028  000B72  C028  FFDA         	movff	USBStdFeatureReqHandler@pUEP+1,fsr2h
  6029  000B76  0EFE               	movlw	254
  6030  000B78  16DF               	andwf	indf2,f,c
  6031                           
  6032                           ; BSR set to: 4
  6033  000B7A  D000               	goto	i2l593
  6034  000B7C                     i2l593:
  6035  000B7C  0012               	return		;funcret
  6036  000B7E                     __end_of_USBStdFeatureReqHandler:
  6037                           	opt stack 0
  6038                           pclatu	equ	0xFFB
  6039                           pclath	equ	0xFFA
  6040                           tblptru	equ	0xFF8
  6041                           tblptrh	equ	0xFF7
  6042                           tblptrl	equ	0xFF6
  6043                           tablat	equ	0xFF5
  6044                           prodh	equ	0xFF4
  6045                           prodl	equ	0xFF3
  6046                           intcon	equ	0xFF2
  6047                           postinc0	equ	0xFEE
  6048                           fsr0h	equ	0xFEA
  6049                           fsr0l	equ	0xFE9
  6050                           wreg	equ	0xFE8
  6051                           indf1	equ	0xFE7
  6052                           fsr1h	equ	0xFE2
  6053                           fsr1l	equ	0xFE1
  6054                           bsr	equ	0xFE0
  6055                           indf2	equ	0xFDF
  6056                           postinc2	equ	0xFDE
  6057                           postdec2	equ	0xFDD
  6058                           plusw2	equ	0xFDB
  6059                           fsr2h	equ	0xFDA
  6060                           fsr2l	equ	0xFD9
  6061                           status	equ	0xFD8
  6062                           
  6063 ;; *************** function _USER_USB_CALLBACK_EVENT_HANDLER *****************
  6064 ;; Defined at:
  6065 ;;		line 122 in file "../src/main_hid.c"
  6066 ;; Parameters:    Size  Location     Type
  6067 ;;  event           2   29[COMRAM] enum E4822
  6068 ;;  pdata           2   31[COMRAM] PTR void 
  6069 ;;		 -> USTATcopy(1), USBActiveConfiguration(1), BDT(32), NULL(0), 
  6070 ;;  size            2   33[COMRAM] unsigned int 
  6071 ;; Auto vars:     Size  Location     Type
  6072 ;;		None
  6073 ;; Return value:  Size  Location     Type
  6074 ;;                  1    wreg      unsigned char 
  6075 ;; Registers used:
  6076 ;;		wreg, fsr2l, fsr2h, status,2, status,0, prodl, prodh, cstack
  6077 ;; Tracked objects:
  6078 ;;		On entry : 0/0
  6079 ;;		On exit  : 0/0
  6080 ;;		Unchanged: 0/0
  6081 ;; Data sizes:     COMRAM   BANK0   BANK1   BANK2   BANK3   BANK4   BANK5   BANK6   BANK7
  6082 ;;      Params:         6       0       0       0       0       0       0       0       0
  6083 ;;      Locals:         0       0       0       0       0       0       0       0       0
  6084 ;;      Temps:          2       0       0       0       0       0       0       0       0
  6085 ;;      Totals:         8       0       0       0       0       0       0       0       0
  6086 ;;Total ram usage:        8 bytes
  6087 ;; Hardware stack levels used:    1
  6088 ;; Hardware stack levels required when called:    3
  6089 ;; This function calls:
  6090 ;;		_APP_CustomHIDInitialize
  6091 ;;		_APP_USBCBErrorHandler
  6092 ;;		_APP_USBCBSuspend
  6093 ;;		_APP_USBCBWakeFromSuspend
  6094 ;;		_APP_USBCB_SOF_Handler
  6095 ;;		_USBCheckHIDRequest
  6096 ;; This function is called by:
  6097 ;;		_USBDeviceTasks
  6098 ;;		_USBStdSetCfgHandler
  6099 ;;		_USBSuspend
  6100 ;;		_USBWakeFromSuspend
  6101 ;;		_USBCtrlTrfSetupHandler
  6102 ;;		_USBCheckStdRequest
  6103 ;;		_USBStdFeatureReqHandler
  6104 ;; This function uses a non-reentrant model
  6105 ;;
  6106                           
  6107                           	psect	text28
  6108  001E6E                     __ptext28:
  6109                           	opt stack 0
  6110  001E6E                     _USER_USB_CALLBACK_EVENT_HANDLER:
  6111                           	opt stack 21
  6112                           
  6113                           ;main_hid.c: 124: switch(event)
  6114                           
  6115                           ;incstack = 0
  6116  001E6E  D013               	goto	i2l2662
  6117                           
  6118                           ;main_hid.c: 128: break;
  6119                           
  6120                           ;main_hid.c: 125: {
  6121                           ;main_hid.c: 126: case EVENT_TRANSFER:
  6122  001E70  D03D               	goto	i2l166
  6123  001E72                     i2l2648:
  6124                           
  6125                           ;main_hid.c: 130: APP_USBCB_SOF_Handler();
  6126  001E72  EC44  F011         	call	_APP_USBCB_SOF_Handler	;wreg free
  6127                           
  6128                           ;main_hid.c: 134: break;
  6129  001E76  D03A               	goto	i2l166
  6130  001E78                     i2l2650:
  6131                           
  6132                           ;main_hid.c: 136: APP_USBCBSuspend();
  6133  001E78  EC46  F011         	call	_APP_USBCBSuspend	;wreg free
  6134                           
  6135                           ;main_hid.c: 139: break;
  6136  001E7C  D037               	goto	i2l166
  6137  001E7E                     i2l2652:
  6138                           
  6139                           ;main_hid.c: 141: APP_USBCBWakeFromSuspend();
  6140  001E7E  EC45  F011         	call	_APP_USBCBWakeFromSuspend	;wreg free
  6141                           
  6142                           ;main_hid.c: 144: break;
  6143  001E82  D034               	goto	i2l166
  6144  001E84                     i2l2654:
  6145                           
  6146                           ;main_hid.c: 149: APP_CustomHIDInitialize();
  6147  001E84  EC92  F010         	call	_APP_CustomHIDInitialize	;wreg free
  6148                           
  6149                           ;main_hid.c: 153: break;
  6150                           
  6151                           ;main_hid.c: 151: case EVENT_SET_DESCRIPTOR:
  6152                           
  6153                           ;main_hid.c: 150: break;
  6154  001E88  D031               	goto	i2l166
  6155  001E8A                     i2l2656:
  6156                           
  6157                           ;main_hid.c: 158: USBCheckHIDRequest();
  6158  001E8A  EC9D  F009         	call	_USBCheckHIDRequest	;wreg free
  6159                           
  6160                           ;main_hid.c: 159: break;
  6161  001E8E  D02E               	goto	i2l166
  6162  001E90                     i2l2658:
  6163                           
  6164                           ;main_hid.c: 161: APP_USBCBErrorHandler();
  6165  001E90  EC47  F011         	call	_APP_USBCBErrorHandler	;wreg free
  6166                           
  6167                           ;main_hid.c: 175: }
  6168                           
  6169                           ;main_hid.c: 174: break;
  6170                           
  6171                           ;main_hid.c: 173: default:
  6172                           
  6173                           ;main_hid.c: 172: break;
  6174                           
  6175                           ;main_hid.c: 163: case EVENT_TRANSFER_TERMINATED:
  6176                           
  6177                           ;main_hid.c: 162: break;
  6178  001E94  D02B               	goto	i2l166
  6179  001E96                     i2l2662:
  6180  001E96  C01E  F024         	movff	USER_USB_CALLBACK_EVENT_HANDLER@event,??_USER_USB_CALLBACK_EVENT_HANDLER
  6181  001E9A  C01F  F025         	movff	USER_USB_CALLBACK_EVENT_HANDLER@event+1,??_USER_USB_CALLBACK_EVENT_HANDLER+1
  6182                           
  6183                           ; Switch on 2 bytes has been partitioned into a top level switch of size 1, and 2 sub-sw
      +                          itches
  6184                           ; Switch size 1, requested type "space"
  6185                           ; Number of cases is 2, Range of values is 0 to 127
  6186                           ; switch strategies available:
  6187                           ; Name         Instructions Cycles
  6188                           ; simple_byte            7     4 (average)
  6189                           ;	Chosen strategy is simple_byte
  6190  001E9E  5025               	movf	??_USER_USB_CALLBACK_EVENT_HANDLER+1,w,c
  6191  001EA0  0A00               	xorlw	0	; case 0
  6192  001EA2  B4D8               	btfsc	status,2,c
  6193  001EA4  D004               	goto	i2l3808
  6194  001EA6  0A7F               	xorlw	127	; case 127
  6195  001EA8  B4D8               	btfsc	status,2,c
  6196  001EAA  D01B               	goto	i2l3810
  6197  001EAC  D01F               	goto	i2l166
  6198  001EAE                     i2l3808:
  6199                           
  6200                           ; Switch size 1, requested type "space"
  6201                           ; Number of cases is 8, Range of values is 1 to 117
  6202                           ; switch strategies available:
  6203                           ; Name         Instructions Cycles
  6204                           ; simple_byte           25    13 (average)
  6205                           ;	Chosen strategy is simple_byte
  6206  001EAE  5024               	movf	??_USER_USB_CALLBACK_EVENT_HANDLER,w,c
  6207  001EB0  0A01               	xorlw	1	; case 1
  6208  001EB2  B4D8               	btfsc	status,2,c
  6209  001EB4  D7E7               	goto	i2l2654
  6210  001EB6  0A03               	xorlw	3	; case 2
  6211  001EB8  B4D8               	btfsc	status,2,c
  6212  001EBA  D018               	goto	i2l166
  6213  001EBC  0A01               	xorlw	1	; case 3
  6214  001EBE  B4D8               	btfsc	status,2,c
  6215  001EC0  D7E4               	goto	i2l2656
  6216  001EC2  0A06               	xorlw	6	; case 5
  6217  001EC4  B4D8               	btfsc	status,2,c
  6218  001EC6  D012               	goto	i2l166
  6219  001EC8  0A77               	xorlw	119	; case 114
  6220  001ECA  B4D8               	btfsc	status,2,c
  6221  001ECC  D00F               	goto	i2l166
  6222  001ECE  0A01               	xorlw	1	; case 115
  6223  001ED0  B4D8               	btfsc	status,2,c
  6224  001ED2  D7CF               	goto	i2l2648
  6225  001ED4  0A07               	xorlw	7	; case 116
  6226  001ED6  B4D8               	btfsc	status,2,c
  6227  001ED8  D7D2               	goto	i2l2652
  6228  001EDA  0A01               	xorlw	1	; case 117
  6229  001EDC  B4D8               	btfsc	status,2,c
  6230  001EDE  D7CC               	goto	i2l2650
  6231  001EE0  D005               	goto	i2l166
  6232  001EE2                     i2l3810:
  6233                           
  6234                           ; Switch size 1, requested type "space"
  6235                           ; Number of cases is 1, Range of values is 255 to 255
  6236                           ; switch strategies available:
  6237                           ; Name         Instructions Cycles
  6238                           ; simple_byte            4     3 (average)
  6239                           ;	Chosen strategy is simple_byte
  6240  001EE2  5024               	movf	??_USER_USB_CALLBACK_EVENT_HANDLER,w,c
  6241  001EE4  0AFF               	xorlw	255	; case 255
  6242  001EE6  B4D8               	btfsc	status,2,c
  6243  001EE8  D7D3               	goto	i2l2658
  6244  001EEA  D000               	goto	i2l166
  6245  001EEC                     i2l166:
  6246  001EEC  0012               	return		;funcret
  6247  001EEE                     __end_of_USER_USB_CALLBACK_EVENT_HANDLER:
  6248                           	opt stack 0
  6249                           pclatu	equ	0xFFB
  6250                           pclath	equ	0xFFA
  6251                           tblptru	equ	0xFF8
  6252                           tblptrh	equ	0xFF7
  6253                           tblptrl	equ	0xFF6
  6254                           tablat	equ	0xFF5
  6255                           prodh	equ	0xFF4
  6256                           prodl	equ	0xFF3
  6257                           intcon	equ	0xFF2
  6258                           postinc0	equ	0xFEE
  6259                           fsr0h	equ	0xFEA
  6260                           fsr0l	equ	0xFE9
  6261                           wreg	equ	0xFE8
  6262                           indf1	equ	0xFE7
  6263                           fsr1h	equ	0xFE2
  6264                           fsr1l	equ	0xFE1
  6265                           bsr	equ	0xFE0
  6266                           indf2	equ	0xFDF
  6267                           postinc2	equ	0xFDE
  6268                           postdec2	equ	0xFDD
  6269                           plusw2	equ	0xFDB
  6270                           fsr2h	equ	0xFDA
  6271                           fsr2l	equ	0xFD9
  6272                           status	equ	0xFD8
  6273                           
  6274 ;; *************** function _USBCheckHIDRequest *****************
  6275 ;; Defined at:
  6276 ;;		line 157 in file "../src/usb/src/usb_device_hid.c"
  6277 ;; Parameters:    Size  Location     Type
  6278 ;;		None
  6279 ;; Auto vars:     Size  Location     Type
  6280 ;;		None
  6281 ;; Return value:  Size  Location     Type
  6282 ;;		None               void
  6283 ;; Registers used:
  6284 ;;		wreg, status,2, status,0
  6285 ;; Tracked objects:
  6286 ;;		On entry : 0/0
  6287 ;;		On exit  : 0/0
  6288 ;;		Unchanged: 0/0
  6289 ;; Data sizes:     COMRAM   BANK0   BANK1   BANK2   BANK3   BANK4   BANK5   BANK6   BANK7
  6290 ;;      Params:         0       0       0       0       0       0       0       0       0
  6291 ;;      Locals:         0       0       0       0       0       0       0       0       0
  6292 ;;      Temps:          0       0       0       0       0       0       0       0       0
  6293 ;;      Totals:         0       0       0       0       0       0       0       0       0
  6294 ;;Total ram usage:        0 bytes
  6295 ;; Hardware stack levels used:    1
  6296 ;; This function calls:
  6297 ;;		Nothing
  6298 ;; This function is called by:
  6299 ;;		_USER_USB_CALLBACK_EVENT_HANDLER
  6300 ;;		_APP_USBCBCheckOtherReq
  6301 ;; This function uses a non-reentrant model
  6302 ;;
  6303                           
  6304                           	psect	text29
  6305  00133A                     __ptext29:
  6306                           	opt stack 0
  6307  00133A                     _USBCheckHIDRequest:
  6308                           	opt stack 23
  6309                           
  6310                           ;usb_device_hid.c: 159: if(SetupPkt.Recipient != (0x01)) return;
  6311                           
  6312                           ;incstack = 0
  6313  00133A  0104               	movlb	4	; () banked
  6314  00133C  5120               	movf	32,w,b	;volatile
  6315  00133E  0B1F               	andlw	31
  6316  001340  06E8               	decf	wreg,f,c
  6317  001342  A4D8               	btfss	status,2,c
  6318  001344  D080               	goto	i2l611
  6319  001346  D001               	goto	i2l2592
  6320                           
  6321                           ; BSR set to: 4
  6322  001348  D07E               	goto	i2l611
  6323  00134A                     i2l2592:
  6324                           
  6325                           ; BSR set to: 4
  6326                           ;usb_device_hid.c: 160: if(SetupPkt.bIntfID != 0x00) return;
  6327  00134A  0104               	movlb	4	; () banked
  6328  00134C  5124               	movf	36,w,b	;volatile
  6329  00134E  A4D8               	btfss	status,2,c
  6330  001350  D07A               	goto	i2l611
  6331  001352  D001               	goto	i2l2596
  6332                           
  6333                           ; BSR set to: 4
  6334  001354  D078               	goto	i2l611
  6335  001356                     i2l2596:
  6336                           
  6337                           ; BSR set to: 4
  6338                           ;usb_device_hid.c: 167: if(SetupPkt.bRequest == 6)
  6339  001356  0E06               	movlw	6
  6340  001358  0104               	movlb	4	; () banked
  6341  00135A  1921               	xorwf	33,w,b	;volatile
  6342  00135C  B4D8               	btfsc	status,2,c
  6343  00135E  D021               	goto	i2l2616
  6344  001360  D02A               	goto	i2l2618
  6345                           
  6346                           ; BSR set to: 4
  6347                           ;usb_device_hid.c: 168: {
  6348                           ;usb_device_hid.c: 169: switch(SetupPkt.bDescriptorType)
  6349  001362  D01F               	goto	i2l2616
  6350  001364                     i2l2600:
  6351                           
  6352                           ; BSR set to: 4
  6353                           ;usb_device_hid.c: 172: if(USBActiveConfiguration == 1)
  6354  001364  0446               	decf	_USBActiveConfiguration,w,c	;volatile
  6355  001366  A4D8               	btfss	status,2,c
  6356  001368  D026               	goto	i2l2618
  6357                           
  6358                           ; BSR set to: 4
  6359                           ;usb_device_hid.c: 173: {
  6360                           ;usb_device_hid.c: 174: { inPipes[0].pSrc.bRom = (const uint8_t*)&configDescriptor1 + 18
      +                          ; inPipes[0].wCount.Val = sizeof(USB_HID_DSC)+3; inPipes[0].info.Val = 0x40 | 0x80 | 0x0
      +                          0; };
  6361  00136A  0E9B               	movlw	low (_configDescriptor1+18)
  6362  00136C  0100               	movlb	0	; () banked
  6363  00136E  6F7A               	movwf	_inPipes& (0+255),b	;volatile
  6364  001370  0E08               	movlw	high (_configDescriptor1+18)
  6365  001372  0100               	movlb	0	; () banked
  6366  001374  6F7B               	movwf	(_inPipes+1)& (0+255),b	;volatile
  6367                           
  6368                           ; BSR set to: 0
  6369  001376  0E00               	movlw	0
  6370  001378  0100               	movlb	0	; () banked
  6371  00137A  6F7F               	movwf	(_inPipes+5)& (0+255),b	;volatile
  6372  00137C  0E09               	movlw	9
  6373  00137E  D00E               	goto	L13
  6374  001380                     i2l2606:
  6375                           
  6376                           ; BSR set to: 0
  6377  001380  0EC0               	movlw	192
  6378  001382  0100               	movlb	0	; () banked
  6379  001384  6F7D               	movwf	(_inPipes+3)& (0+255),b	;volatile
  6380                           
  6381                           ; BSR set to: 0
  6382                           ;usb_device_hid.c: 178: }
  6383                           ;usb_device_hid.c: 179: break;
  6384  001386  D017               	goto	i2l2618
  6385  001388                     i2l2608:
  6386                           
  6387                           ;usb_device_hid.c: 182: {
  6388                           ;usb_device_hid.c: 183: { inPipes[0].pSrc.bRom = (const uint8_t*)&hid_rpt01; inPipes[0].
      +                          wCount.Val = 29; inPipes[0].info.Val = 0x40 | 0x80 | 0x00; };
  6389  001388  0EB2               	movlw	low _hid_rpt01
  6390  00138A  0100               	movlb	0	; () banked
  6391  00138C  6F7A               	movwf	_inPipes& (0+255),b	;volatile
  6392  00138E  0E08               	movlw	high _hid_rpt01
  6393  001390  0100               	movlb	0	; () banked
  6394  001392  6F7B               	movwf	(_inPipes+1)& (0+255),b	;volatile
  6395                           
  6396                           ; BSR set to: 0
  6397  001394  0E00               	movlw	0
  6398  001396  0100               	movlb	0	; () banked
  6399  001398  6F7F               	movwf	(_inPipes+5)& (0+255),b	;volatile
  6400  00139A  0E1D               	movlw	29
  6401  00139C                     L13:
  6402  00139C  6F7E               	movwf	(_inPipes+4)& (0+255),b	;volatile
  6403  00139E  D7F0               	goto	i2l2606
  6404                           
  6405                           ; BSR set to: 0
  6406                           ;usb_device_hid.c: 202: }
  6407                           
  6408                           ; BSR set to: 0
  6409                           ;usb_device_hid.c: 201: break;
  6410                           
  6411                           ;usb_device_hid.c: 189: case 0x23:
  6412                           
  6413                           ;usb_device_hid.c: 187: }
  6414                           ;usb_device_hid.c: 188: break;
  6415                           
  6416                           ; BSR set to: 0
  6417  0013A0  D00A               	goto	i2l2618
  6418  0013A2                     i2l2616:
  6419  0013A2  0104               	movlb	4	; () banked
  6420  0013A4  5123               	movf	35,w,b	;volatile
  6421                           
  6422                           ; Switch size 1, requested type "space"
  6423                           ; Number of cases is 3, Range of values is 33 to 35
  6424                           ; switch strategies available:
  6425                           ; Name         Instructions Cycles
  6426                           ; simple_byte           10     6 (average)
  6427                           ;	Chosen strategy is simple_byte
  6428  0013A6  0A21               	xorlw	33	; case 33
  6429  0013A8  B4D8               	btfsc	status,2,c
  6430  0013AA  D7DC               	goto	i2l2600
  6431  0013AC  0A03               	xorlw	3	; case 34
  6432  0013AE  B4D8               	btfsc	status,2,c
  6433  0013B0  D7EB               	goto	i2l2608
  6434  0013B2  0A01               	xorlw	1	; case 35
  6435                           
  6436                           ; BSR set to: 4
  6437  0013B4  D000               	goto	i2l2618
  6438  0013B6                     i2l2618:
  6439                           
  6440                           ;usb_device_hid.c: 203: }
  6441                           ;usb_device_hid.c: 205: if(SetupPkt.RequestType != (0x20>>5))
  6442  0013B6  0104               	movlb	4	; () banked
  6443  0013B8  3920               	swapf	32,w,b	;volatile
  6444  0013BA  32E8               	rrcf	wreg,f,c
  6445  0013BC  0B03               	andlw	3
  6446  0013BE  06E8               	decf	wreg,f,c
  6447  0013C0  A4D8               	btfss	status,2,c
  6448  0013C2  D041               	goto	i2l611
  6449  0013C4  D02B               	goto	i2l2644
  6450                           
  6451                           ; BSR set to: 4
  6452                           ;usb_device_hid.c: 206: {
  6453                           ;usb_device_hid.c: 207: return;
  6454  0013C6  D03F               	goto	i2l611
  6455                           
  6456                           ; BSR set to: 4
  6457                           ;usb_device_hid.c: 208: }
  6458                           ;usb_device_hid.c: 210: switch(SetupPkt.bRequest)
  6459  0013C8  D029               	goto	i2l2644
  6460                           
  6461                           ; BSR set to: 4
  6462                           ;usb_device_hid.c: 221: break;
  6463                           
  6464                           ;usb_device_hid.c: 217: case 0x09:
  6465                           
  6466                           ; BSR set to: 4
  6467                           ;usb_device_hid.c: 216: break;
  6468                           
  6469                           ;usb_device_hid.c: 211: {
  6470                           ;usb_device_hid.c: 212: case 0x01:
  6471  0013CA  D03D               	goto	i2l611
  6472  0013CC                     i2l2622:
  6473                           
  6474                           ; BSR set to: 4
  6475                           ;usb_device_hid.c: 223: { inPipes[0].pSrc.bRam = (uint8_t*)&idle_rate; inPipes[0].wCount
      +                          .Val = 1; inPipes[0].info.Val = 0x40 | 0x80 | 0x01; };
  6476  0013CC  0E4A               	movlw	low _idle_rate
  6477  0013CE  0100               	movlb	0	; () banked
  6478  0013D0  6F7A               	movwf	_inPipes& (0+255),b	;volatile
  6479  0013D2  0E00               	movlw	high _idle_rate
  6480  0013D4  0100               	movlb	0	; () banked
  6481  0013D6  6F7B               	movwf	(_inPipes+1)& (0+255),b	;volatile
  6482                           
  6483                           ; BSR set to: 0
  6484  0013D8  0E00               	movlw	0
  6485  0013DA  0100               	movlb	0	; () banked
  6486  0013DC  6F7F               	movwf	(_inPipes+5)& (0+255),b	;volatile
  6487  0013DE  0E01               	movlw	1
  6488  0013E0  6F7E               	movwf	(_inPipes+4)& (0+255),b	;volatile
  6489                           
  6490                           ; BSR set to: 0
  6491  0013E2  0EC1               	movlw	193
  6492  0013E4  D012               	goto	L14
  6493  0013E6                     i2l2628:
  6494                           
  6495                           ;usb_device_hid.c: 229: inPipes[0].info.Val = 0x00 | 0x80;
  6496  0013E6  0E80               	movlw	128
  6497  0013E8  0100               	movlb	0	; () banked
  6498  0013EA  6F7D               	movwf	(_inPipes+3)& (0+255),b	;volatile
  6499                           
  6500                           ; BSR set to: 0
  6501                           ;usb_device_hid.c: 230: idle_rate = ((USB_SETUP_SET_IDLE_RATE*)&SetupPkt)->duration;
  6502  0013EC  C423 F04A          	movff	1059,_idle_rate
  6503                           
  6504                           ;usb_device_hid.c: 231: ;
  6505                           ;usb_device_hid.c: 232: break;
  6506  0013F0  D02A               	goto	i2l611
  6507  0013F2                     i2l2632:
  6508                           
  6509                           ;usb_device_hid.c: 234: { inPipes[0].pSrc.bRam = (uint8_t*)&active_protocol; inPipes[0].
      +                          wCount.Val = 1; inPipes[0].info.Val = 0x00 | 0x80 | 0x01; };
  6510  0013F2  0E49               	movlw	low _active_protocol
  6511  0013F4  0100               	movlb	0	; () banked
  6512  0013F6  6F7A               	movwf	_inPipes& (0+255),b	;volatile
  6513  0013F8  0E00               	movlw	high _active_protocol
  6514  0013FA  0100               	movlb	0	; () banked
  6515  0013FC  6F7B               	movwf	(_inPipes+1)& (0+255),b	;volatile
  6516                           
  6517                           ; BSR set to: 0
  6518  0013FE  0E00               	movlw	0
  6519  001400  0100               	movlb	0	; () banked
  6520  001402  6F7F               	movwf	(_inPipes+5)& (0+255),b	;volatile
  6521  001404  0E01               	movlw	1
  6522  001406  6F7E               	movwf	(_inPipes+4)& (0+255),b	;volatile
  6523                           
  6524                           ; BSR set to: 0
  6525  001408  0E81               	movlw	129
  6526  00140A                     L14:
  6527  00140A  0100               	movlb	0	; () banked
  6528  00140C  6F7D               	movwf	(_inPipes+3)& (0+255),b	;volatile
  6529                           
  6530                           ;usb_device_hid.c: 238: break;
  6531  00140E  D01B               	goto	i2l611
  6532  001410                     i2l2638:
  6533                           
  6534                           ;usb_device_hid.c: 240: inPipes[0].info.Val = 0x00 | 0x80;
  6535  001410  0E80               	movlw	128
  6536  001412  0100               	movlb	0	; () banked
  6537  001414  6F7D               	movwf	(_inPipes+3)& (0+255),b	;volatile
  6538                           
  6539                           ; BSR set to: 0
  6540                           ;usb_device_hid.c: 241: active_protocol = ((USB_SETUP_SET_PROTOCOL*)&SetupPkt)->protocol
      +                          ;
  6541  001416  C422 F049          	movff	1058,_active_protocol
  6542                           
  6543                           ; BSR set to: 0
  6544                           ;usb_device_hid.c: 243: }
  6545                           
  6546                           ;usb_device_hid.c: 242: break;
  6547  00141A  D015               	goto	i2l611
  6548  00141C                     i2l2644:
  6549  00141C  0104               	movlb	4	; () banked
  6550  00141E  5121               	movf	33,w,b	;volatile
  6551                           
  6552                           ; Switch size 1, requested type "space"
  6553                           ; Number of cases is 6, Range of values is 1 to 11
  6554                           ; switch strategies available:
  6555                           ; Name         Instructions Cycles
  6556                           ; simple_byte           19    10 (average)
  6557                           ;	Chosen strategy is simple_byte
  6558  001420  0A01               	xorlw	1	; case 1
  6559  001422  B4D8               	btfsc	status,2,c
  6560  001424  D010               	goto	i2l611
  6561  001426  0A03               	xorlw	3	; case 2
  6562  001428  B4D8               	btfsc	status,2,c
  6563  00142A  D7D0               	goto	i2l2622
  6564  00142C  0A01               	xorlw	1	; case 3
  6565  00142E  B4D8               	btfsc	status,2,c
  6566  001430  D7E0               	goto	i2l2632
  6567  001432  0A0A               	xorlw	10	; case 9
  6568  001434  B4D8               	btfsc	status,2,c
  6569  001436  D007               	goto	i2l611
  6570  001438  0A03               	xorlw	3	; case 10
  6571  00143A  B4D8               	btfsc	status,2,c
  6572  00143C  D7D4               	goto	i2l2628
  6573  00143E  0A01               	xorlw	1	; case 11
  6574  001440  B4D8               	btfsc	status,2,c
  6575  001442  D7E6               	goto	i2l2638
  6576  001444  D000               	goto	i2l611
  6577  001446                     i2l611:
  6578  001446  0012               	return		;funcret
  6579  001448                     __end_of_USBCheckHIDRequest:
  6580                           	opt stack 0
  6581                           pclatu	equ	0xFFB
  6582                           pclath	equ	0xFFA
  6583                           tblptru	equ	0xFF8
  6584                           tblptrh	equ	0xFF7
  6585                           tblptrl	equ	0xFF6
  6586                           tablat	equ	0xFF5
  6587                           prodh	equ	0xFF4
  6588                           prodl	equ	0xFF3
  6589                           intcon	equ	0xFF2
  6590                           postinc0	equ	0xFEE
  6591                           fsr0h	equ	0xFEA
  6592                           fsr0l	equ	0xFE9
  6593                           wreg	equ	0xFE8
  6594                           indf1	equ	0xFE7
  6595                           fsr1h	equ	0xFE2
  6596                           fsr1l	equ	0xFE1
  6597                           bsr	equ	0xFE0
  6598                           indf2	equ	0xFDF
  6599                           postinc2	equ	0xFDE
  6600                           postdec2	equ	0xFDD
  6601                           plusw2	equ	0xFDB
  6602                           fsr2h	equ	0xFDA
  6603                           fsr2l	equ	0xFD9
  6604                           status	equ	0xFD8
  6605                           
  6606 ;; *************** function _APP_USBCB_SOF_Handler *****************
  6607 ;; Defined at:
  6608 ;;		line 261 in file "../src/app_custom_hid.c"
  6609 ;; Parameters:    Size  Location     Type
  6610 ;;		None
  6611 ;; Auto vars:     Size  Location     Type
  6612 ;;		None
  6613 ;; Return value:  Size  Location     Type
  6614 ;;		None               void
  6615 ;; Registers used:
  6616 ;;		None
  6617 ;; Tracked objects:
  6618 ;;		On entry : 0/0
  6619 ;;		On exit  : 0/0
  6620 ;;		Unchanged: 0/0
  6621 ;; Data sizes:     COMRAM   BANK0   BANK1   BANK2   BANK3   BANK4   BANK5   BANK6   BANK7
  6622 ;;      Params:         0       0       0       0       0       0       0       0       0
  6623 ;;      Locals:         0       0       0       0       0       0       0       0       0
  6624 ;;      Temps:          0       0       0       0       0       0       0       0       0
  6625 ;;      Totals:         0       0       0       0       0       0       0       0       0
  6626 ;;Total ram usage:        0 bytes
  6627 ;; Hardware stack levels used:    1
  6628 ;; This function calls:
  6629 ;;		Nothing
  6630 ;; This function is called by:
  6631 ;;		_USER_USB_CALLBACK_EVENT_HANDLER
  6632 ;; This function uses a non-reentrant model
  6633 ;;
  6634                           
  6635                           	psect	text30
  6636  002288                     __ptext30:
  6637                           	opt stack 0
  6638  002288                     _APP_USBCB_SOF_Handler:
  6639                           	opt stack 23
  6640                           
  6641                           ;incstack = 0
  6642  002288  0012               	return		;funcret
  6643  00228A                     __end_of_APP_USBCB_SOF_Handler:
  6644                           	opt stack 0
  6645                           pclatu	equ	0xFFB
  6646                           pclath	equ	0xFFA
  6647                           tblptru	equ	0xFF8
  6648                           tblptrh	equ	0xFF7
  6649                           tblptrl	equ	0xFF6
  6650                           tablat	equ	0xFF5
  6651                           prodh	equ	0xFF4
  6652                           prodl	equ	0xFF3
  6653                           intcon	equ	0xFF2
  6654                           postinc0	equ	0xFEE
  6655                           fsr0h	equ	0xFEA
  6656                           fsr0l	equ	0xFE9
  6657                           wreg	equ	0xFE8
  6658                           indf1	equ	0xFE7
  6659                           fsr1h	equ	0xFE2
  6660                           fsr1l	equ	0xFE1
  6661                           bsr	equ	0xFE0
  6662                           indf2	equ	0xFDF
  6663                           postinc2	equ	0xFDE
  6664                           postdec2	equ	0xFDD
  6665                           plusw2	equ	0xFDB
  6666                           fsr2h	equ	0xFDA
  6667                           fsr2l	equ	0xFD9
  6668                           status	equ	0xFD8
  6669                           
  6670 ;; *************** function _APP_USBCBWakeFromSuspend *****************
  6671 ;; Defined at:
  6672 ;;		line 229 in file "../src/app_custom_hid.c"
  6673 ;; Parameters:    Size  Location     Type
  6674 ;;		None
  6675 ;; Auto vars:     Size  Location     Type
  6676 ;;		None
  6677 ;; Return value:  Size  Location     Type
  6678 ;;		None               void
  6679 ;; Registers used:
  6680 ;;		None
  6681 ;; Tracked objects:
  6682 ;;		On entry : 0/0
  6683 ;;		On exit  : 0/0
  6684 ;;		Unchanged: 0/0
  6685 ;; Data sizes:     COMRAM   BANK0   BANK1   BANK2   BANK3   BANK4   BANK5   BANK6   BANK7
  6686 ;;      Params:         0       0       0       0       0       0       0       0       0
  6687 ;;      Locals:         0       0       0       0       0       0       0       0       0
  6688 ;;      Temps:          0       0       0       0       0       0       0       0       0
  6689 ;;      Totals:         0       0       0       0       0       0       0       0       0
  6690 ;;Total ram usage:        0 bytes
  6691 ;; Hardware stack levels used:    1
  6692 ;; This function calls:
  6693 ;;		Nothing
  6694 ;; This function is called by:
  6695 ;;		_USER_USB_CALLBACK_EVENT_HANDLER
  6696 ;;		_USBCBSendResume
  6697 ;; This function uses a non-reentrant model
  6698 ;;
  6699                           
  6700                           	psect	text31
  6701  00228A                     __ptext31:
  6702                           	opt stack 0
  6703  00228A                     _APP_USBCBWakeFromSuspend:
  6704                           	opt stack 23
  6705                           
  6706                           ;incstack = 0
  6707  00228A  0012               	return		;funcret
  6708  00228C                     __end_of_APP_USBCBWakeFromSuspend:
  6709                           	opt stack 0
  6710                           pclatu	equ	0xFFB
  6711                           pclath	equ	0xFFA
  6712                           tblptru	equ	0xFF8
  6713                           tblptrh	equ	0xFF7
  6714                           tblptrl	equ	0xFF6
  6715                           tablat	equ	0xFF5
  6716                           prodh	equ	0xFF4
  6717                           prodl	equ	0xFF3
  6718                           intcon	equ	0xFF2
  6719                           postinc0	equ	0xFEE
  6720                           fsr0h	equ	0xFEA
  6721                           fsr0l	equ	0xFE9
  6722                           wreg	equ	0xFE8
  6723                           indf1	equ	0xFE7
  6724                           fsr1h	equ	0xFE2
  6725                           fsr1l	equ	0xFE1
  6726                           bsr	equ	0xFE0
  6727                           indf2	equ	0xFDF
  6728                           postinc2	equ	0xFDE
  6729                           postdec2	equ	0xFDD
  6730                           plusw2	equ	0xFDB
  6731                           fsr2h	equ	0xFDA
  6732                           fsr2l	equ	0xFD9
  6733                           status	equ	0xFD8
  6734                           
  6735 ;; *************** function _APP_USBCBSuspend *****************
  6736 ;; Defined at:
  6737 ;;		line 187 in file "../src/app_custom_hid.c"
  6738 ;; Parameters:    Size  Location     Type
  6739 ;;		None
  6740 ;; Auto vars:     Size  Location     Type
  6741 ;;		None
  6742 ;; Return value:  Size  Location     Type
  6743 ;;		None               void
  6744 ;; Registers used:
  6745 ;;		None
  6746 ;; Tracked objects:
  6747 ;;		On entry : 0/0
  6748 ;;		On exit  : 0/0
  6749 ;;		Unchanged: 0/0
  6750 ;; Data sizes:     COMRAM   BANK0   BANK1   BANK2   BANK3   BANK4   BANK5   BANK6   BANK7
  6751 ;;      Params:         0       0       0       0       0       0       0       0       0
  6752 ;;      Locals:         0       0       0       0       0       0       0       0       0
  6753 ;;      Temps:          0       0       0       0       0       0       0       0       0
  6754 ;;      Totals:         0       0       0       0       0       0       0       0       0
  6755 ;;Total ram usage:        0 bytes
  6756 ;; Hardware stack levels used:    1
  6757 ;; This function calls:
  6758 ;;		Nothing
  6759 ;; This function is called by:
  6760 ;;		_USER_USB_CALLBACK_EVENT_HANDLER
  6761 ;; This function uses a non-reentrant model
  6762 ;;
  6763                           
  6764                           	psect	text32
  6765  00228C                     __ptext32:
  6766                           	opt stack 0
  6767  00228C                     _APP_USBCBSuspend:
  6768                           	opt stack 23
  6769                           
  6770                           ;incstack = 0
  6771  00228C  0012               	return		;funcret
  6772  00228E                     __end_of_APP_USBCBSuspend:
  6773                           	opt stack 0
  6774                           pclatu	equ	0xFFB
  6775                           pclath	equ	0xFFA
  6776                           tblptru	equ	0xFF8
  6777                           tblptrh	equ	0xFF7
  6778                           tblptrl	equ	0xFF6
  6779                           tablat	equ	0xFF5
  6780                           prodh	equ	0xFF4
  6781                           prodl	equ	0xFF3
  6782                           intcon	equ	0xFF2
  6783                           postinc0	equ	0xFEE
  6784                           fsr0h	equ	0xFEA
  6785                           fsr0l	equ	0xFE9
  6786                           wreg	equ	0xFE8
  6787                           indf1	equ	0xFE7
  6788                           fsr1h	equ	0xFE2
  6789                           fsr1l	equ	0xFE1
  6790                           bsr	equ	0xFE0
  6791                           indf2	equ	0xFDF
  6792                           postinc2	equ	0xFDE
  6793                           postdec2	equ	0xFDD
  6794                           plusw2	equ	0xFDB
  6795                           fsr2h	equ	0xFDA
  6796                           fsr2l	equ	0xFD9
  6797                           status	equ	0xFD8
  6798                           
  6799 ;; *************** function _APP_USBCBErrorHandler *****************
  6800 ;; Defined at:
  6801 ;;		line 284 in file "../src/app_custom_hid.c"
  6802 ;; Parameters:    Size  Location     Type
  6803 ;;		None
  6804 ;; Auto vars:     Size  Location     Type
  6805 ;;		None
  6806 ;; Return value:  Size  Location     Type
  6807 ;;		None               void
  6808 ;; Registers used:
  6809 ;;		None
  6810 ;; Tracked objects:
  6811 ;;		On entry : 0/0
  6812 ;;		On exit  : 0/0
  6813 ;;		Unchanged: 0/0
  6814 ;; Data sizes:     COMRAM   BANK0   BANK1   BANK2   BANK3   BANK4   BANK5   BANK6   BANK7
  6815 ;;      Params:         0       0       0       0       0       0       0       0       0
  6816 ;;      Locals:         0       0       0       0       0       0       0       0       0
  6817 ;;      Temps:          0       0       0       0       0       0       0       0       0
  6818 ;;      Totals:         0       0       0       0       0       0       0       0       0
  6819 ;;Total ram usage:        0 bytes
  6820 ;; Hardware stack levels used:    1
  6821 ;; This function calls:
  6822 ;;		Nothing
  6823 ;; This function is called by:
  6824 ;;		_USER_USB_CALLBACK_EVENT_HANDLER
  6825 ;; This function uses a non-reentrant model
  6826 ;;
  6827                           
  6828                           	psect	text33
  6829  00228E                     __ptext33:
  6830                           	opt stack 0
  6831  00228E                     _APP_USBCBErrorHandler:
  6832                           	opt stack 23
  6833                           
  6834                           ;incstack = 0
  6835  00228E  0012               	return		;funcret
  6836  002290                     __end_of_APP_USBCBErrorHandler:
  6837                           	opt stack 0
  6838                           pclatu	equ	0xFFB
  6839                           pclath	equ	0xFFA
  6840                           tblptru	equ	0xFF8
  6841                           tblptrh	equ	0xFF7
  6842                           tblptrl	equ	0xFF6
  6843                           tablat	equ	0xFF5
  6844                           prodh	equ	0xFF4
  6845                           prodl	equ	0xFF3
  6846                           intcon	equ	0xFF2
  6847                           postinc0	equ	0xFEE
  6848                           fsr0h	equ	0xFEA
  6849                           fsr0l	equ	0xFE9
  6850                           wreg	equ	0xFE8
  6851                           indf1	equ	0xFE7
  6852                           fsr1h	equ	0xFE2
  6853                           fsr1l	equ	0xFE1
  6854                           bsr	equ	0xFE0
  6855                           indf2	equ	0xFDF
  6856                           postinc2	equ	0xFDE
  6857                           postdec2	equ	0xFDD
  6858                           plusw2	equ	0xFDB
  6859                           fsr2h	equ	0xFDA
  6860                           fsr2l	equ	0xFD9
  6861                           status	equ	0xFD8
  6862                           
  6863 ;; *************** function _APP_CustomHIDInitialize *****************
  6864 ;; Defined at:
  6865 ;;		line 42 in file "../src/app_custom_hid.c"
  6866 ;; Parameters:    Size  Location     Type
  6867 ;;		None
  6868 ;; Auto vars:     Size  Location     Type
  6869 ;;		None
  6870 ;; Return value:  Size  Location     Type
  6871 ;;		None               void
  6872 ;; Registers used:
  6873 ;;		wreg, fsr2l, fsr2h, status,2, status,0, prodl, prodh, cstack
  6874 ;; Tracked objects:
  6875 ;;		On entry : 0/0
  6876 ;;		On exit  : 0/0
  6877 ;;		Unchanged: 0/0
  6878 ;; Data sizes:     COMRAM   BANK0   BANK1   BANK2   BANK3   BANK4   BANK5   BANK6   BANK7
  6879 ;;      Params:         0       0       0       0       0       0       0       0       0
  6880 ;;      Locals:         0       0       0       0       0       0       0       0       0
  6881 ;;      Temps:          0       0       0       0       0       0       0       0       0
  6882 ;;      Totals:         0       0       0       0       0       0       0       0       0
  6883 ;;Total ram usage:        0 bytes
  6884 ;; Hardware stack levels used:    1
  6885 ;; Hardware stack levels required when called:    2
  6886 ;; This function calls:
  6887 ;;		_USBEnableEndpoint
  6888 ;;		i2_USBTransferOnePacket
  6889 ;; This function is called by:
  6890 ;;		_USER_USB_CALLBACK_EVENT_HANDLER
  6891 ;; This function uses a non-reentrant model
  6892 ;;
  6893                           
  6894                           	psect	text34
  6895  002124                     __ptext34:
  6896                           	opt stack 0
  6897  002124                     _APP_CustomHIDInitialize:
  6898                           	opt stack 21
  6899                           
  6900                           ;app_custom_hid.c: 45: USBInHandle = 0;
  6901                           
  6902                           ;incstack = 0
  6903  002124  0E00               	movlw	0
  6904  002126  0100               	movlb	0	; () banked
  6905  002128  6F70               	movwf	_USBInHandle& (0+255),b
  6906  00212A  0E00               	movlw	0
  6907  00212C  0100               	movlb	0	; () banked
  6908  00212E  6F71               	movwf	(_USBInHandle+1)& (0+255),b
  6909                           
  6910                           ; BSR set to: 0
  6911                           ;app_custom_hid.c: 49: USBEnableEndpoint(1, 0x02|0x04|0x10|0x08);
  6912  002130  0E1E               	movlw	30
  6913  002132  6E1A               	movwf	USBEnableEndpoint@options,c
  6914  002134  0E01               	movlw	1
  6915  002136  EC3C  F010         	call	_USBEnableEndpoint
  6916                           
  6917                           ;app_custom_hid.c: 53: USBOutHandle = (volatile void*)USBTransferOnePacket(1,0,(uint8_t*
      +                          )&ReceivedDataBuffer,64);
  6918  00213A  0E00               	movlw	0
  6919  00213C  6E12               	movwf	i2USBTransferOnePacket@dir,c
  6920  00213E  0E00               	movlw	0
  6921  002140  6E13               	movwf	i2USBTransferOnePacket@data,c
  6922  002142  0E05               	movlw	5
  6923  002144  6E14               	movwf	i2USBTransferOnePacket@data+1,c
  6924  002146  0E40               	movlw	64
  6925  002148  6E15               	movwf	i2USBTransferOnePacket@len,c
  6926  00214A  0E01               	movlw	1
  6927  00214C  EC9C  F00D         	call	i2_USBTransferOnePacket
  6928  002150  C012  F072         	movff	?i2_USBTransferOnePacket,_USBOutHandle
  6929  002154  C013  F073         	movff	?i2_USBTransferOnePacket+1,_USBOutHandle+1
  6930  002158  0012               	return		;funcret
  6931  00215A                     __end_of_APP_CustomHIDInitialize:
  6932                           	opt stack 0
  6933                           pclatu	equ	0xFFB
  6934                           pclath	equ	0xFFA
  6935                           tblptru	equ	0xFF8
  6936                           tblptrh	equ	0xFF7
  6937                           tblptrl	equ	0xFF6
  6938                           tablat	equ	0xFF5
  6939                           prodh	equ	0xFF4
  6940                           prodl	equ	0xFF3
  6941                           intcon	equ	0xFF2
  6942                           postinc0	equ	0xFEE
  6943                           fsr0h	equ	0xFEA
  6944                           fsr0l	equ	0xFE9
  6945                           wreg	equ	0xFE8
  6946                           indf1	equ	0xFE7
  6947                           fsr1h	equ	0xFE2
  6948                           fsr1l	equ	0xFE1
  6949                           bsr	equ	0xFE0
  6950                           indf2	equ	0xFDF
  6951                           postinc2	equ	0xFDE
  6952                           postdec2	equ	0xFDD
  6953                           plusw2	equ	0xFDB
  6954                           fsr2h	equ	0xFDA
  6955                           fsr2l	equ	0xFD9
  6956                           status	equ	0xFD8
  6957                           
  6958 ;; *************** function i2_USBTransferOnePacket *****************
  6959 ;; Defined at:
  6960 ;;		line 995 in file "../src/usb/src/usb_device.c"
  6961 ;; Parameters:    Size  Location     Type
  6962 ;;  ep              1    wreg     unsigned char 
  6963 ;;  dir             1   17[COMRAM] unsigned char 
  6964 ;;  data            2   18[COMRAM] PTR unsigned char 
  6965 ;;		 -> ToSendDataBuffer(64), ReceivedDataBuffer(64), 
  6966 ;;  len             1   20[COMRAM] unsigned char 
  6967 ;; Auto vars:     Size  Location     Type
  6968 ;;  ep              1   21[COMRAM] unsigned char 
  6969 ;;  USBTransferO    2   22[COMRAM] PTR volatile struct __BD
  6970 ;;		 -> BDT(32), NULL(0), 
  6971 ;; Return value:  Size  Location     Type
  6972 ;;                  2   17[COMRAM] PTR void 
  6973 ;; Registers used:
  6974 ;;		wreg, fsr2l, fsr2h, status,2, status,0, prodl, prodh
  6975 ;; Tracked objects:
  6976 ;;		On entry : 0/0
  6977 ;;		On exit  : 0/0
  6978 ;;		Unchanged: 0/0
  6979 ;; Data sizes:     COMRAM   BANK0   BANK1   BANK2   BANK3   BANK4   BANK5   BANK6   BANK7
  6980 ;;      Params:         4       0       0       0       0       0       0       0       0
  6981 ;;      Locals:         3       0       0       0       0       0       0       0       0
  6982 ;;      Temps:          0       0       0       0       0       0       0       0       0
  6983 ;;      Totals:         7       0       0       0       0       0       0       0       0
  6984 ;;Total ram usage:        7 bytes
  6985 ;; Hardware stack levels used:    1
  6986 ;; This function calls:
  6987 ;;		Nothing
  6988 ;; This function is called by:
  6989 ;;		_APP_CustomHIDInitialize
  6990 ;; This function uses a non-reentrant model
  6991 ;;
  6992                           
  6993                           	psect	text35
  6994  001B38                     __ptext35:
  6995                           	opt stack 0
  6996  001B38                     i2_USBTransferOnePacket:
  6997                           	opt stack 22
  6998                           
  6999                           ;incstack = 0
  7000                           ;i2USBTransferOnePacket@ep stored from wreg
  7001  001B38  6E16               	movwf	i2USBTransferOnePacket@ep,c
  7002                           
  7003                           ;usb_device.c: 997: volatile BDT_ENTRY* handle;
  7004                           ;usb_device.c: 1000: if(dir != 0)
  7005  001B3A  5012               	movf	i2USBTransferOnePacket@dir,w,c
  7006  001B3C  B4D8               	btfsc	status,2,c
  7007  001B3E  D007               	goto	i2l2556
  7008                           
  7009                           ;usb_device.c: 1001: {
  7010                           ;usb_device.c: 1003: handle = pBDTEntryIn[ep];
  7011  001B40  5016               	movf	i2USBTransferOnePacket@ep,w,c
  7012  001B42  0D02               	mullw	2
  7013  001B44  0E68               	movlw	low _pBDTEntryIn
  7014  001B46  24F3               	addwf	prodl,w,c
  7015  001B48  6ED9               	movwf	fsr2l,c
  7016  001B4A  0E00               	movlw	high _pBDTEntryIn
  7017  001B4C  D006               	goto	L15
  7018  001B4E                     i2l2556:
  7019                           
  7020                           ;usb_device.c: 1005: else
  7021                           ;usb_device.c: 1006: {
  7022                           ;usb_device.c: 1008: handle = pBDTEntryOut[ep];
  7023  001B4E  5016               	movf	i2USBTransferOnePacket@ep,w,c
  7024  001B50  0D02               	mullw	2
  7025  001B52  0E6C               	movlw	low _pBDTEntryOut
  7026  001B54  24F3               	addwf	prodl,w,c
  7027  001B56  6ED9               	movwf	fsr2l,c
  7028  001B58  0E00               	movlw	high _pBDTEntryOut
  7029  001B5A                     L15:
  7030  001B5A  20F4               	addwfc	prodh,w,c
  7031  001B5C  6EDA               	movwf	fsr2h,c
  7032  001B5E  CFDE F017          	movff	postinc2,i2USBTransferOnePacket@handle
  7033  001B62  CFDD F018          	movff	postdec2,i2USBTransferOnePacket@handle+1
  7034  001B66  D000               	goto	i2l2558
  7035  001B68                     i2l2558:
  7036                           
  7037                           ;usb_device.c: 1009: }
  7038                           ;usb_device.c: 1013: if(handle == 0)
  7039  001B68  5017               	movf	i2USBTransferOnePacket@handle,w,c
  7040  001B6A  1018               	iorwf	i2USBTransferOnePacket@handle+1,w,c
  7041  001B6C  A4D8               	btfss	status,2,c
  7042  001B6E  D005               	goto	i2l2564
  7043                           
  7044                           ;usb_device.c: 1014: {
  7045                           ;usb_device.c: 1015: return 0;
  7046  001B70  0E00               	movlw	0
  7047  001B72  6E12               	movwf	?i2_USBTransferOnePacket,c
  7048  001B74  0E00               	movlw	0
  7049  001B76  6E13               	movwf	?i2_USBTransferOnePacket+1,c
  7050  001B78  D03E               	goto	i2l384
  7051  001B7A                     i2l2564:
  7052                           
  7053                           ;usb_device.c: 1016: }
  7054                           ;usb_device.c: 1029: handle->ADR = ((uint16_t)(data));
  7055  001B7A  EE20 F002          	lfsr	2,2
  7056  001B7E  5017               	movf	i2USBTransferOnePacket@handle,w,c
  7057  001B80  26D9               	addwf	fsr2l,f,c
  7058  001B82  5018               	movf	i2USBTransferOnePacket@handle+1,w,c
  7059  001B84  22DA               	addwfc	fsr2h,f,c
  7060  001B86  C013  FFDE         	movff	i2USBTransferOnePacket@data,postinc2
  7061  001B8A  C014  FFDD         	movff	i2USBTransferOnePacket@data+1,postdec2
  7062                           
  7063                           ;usb_device.c: 1030: handle->CNT = len;
  7064  001B8E  EE20 F001          	lfsr	2,1
  7065  001B92  5017               	movf	i2USBTransferOnePacket@handle,w,c
  7066  001B94  26D9               	addwf	fsr2l,f,c
  7067  001B96  5018               	movf	i2USBTransferOnePacket@handle+1,w,c
  7068  001B98  22DA               	addwfc	fsr2h,f,c
  7069  001B9A  C015  FFDF         	movff	i2USBTransferOnePacket@len,indf2
  7070                           
  7071                           ;usb_device.c: 1031: handle->STAT.Val &= 0x40;
  7072  001B9E  C017  FFD9         	movff	i2USBTransferOnePacket@handle,fsr2l
  7073  001BA2  C018  FFDA         	movff	i2USBTransferOnePacket@handle+1,fsr2h
  7074  001BA6  0E40               	movlw	64
  7075  001BA8  16DF               	andwf	indf2,f,c
  7076                           
  7077                           ;usb_device.c: 1032: handle->STAT.Val |= (0x08 & 0x08);
  7078  001BAA  C017  FFD9         	movff	i2USBTransferOnePacket@handle,fsr2l
  7079  001BAE  C018  FFDA         	movff	i2USBTransferOnePacket@handle+1,fsr2h
  7080  001BB2  0E00               	movlw	0
  7081  001BB4  86DB               	bsf	plusw2,3,c
  7082                           
  7083                           ;usb_device.c: 1033: handle->STAT.Val |= 0x80;
  7084  001BB6  C017  FFD9         	movff	i2USBTransferOnePacket@handle,fsr2l
  7085  001BBA  C018  FFDA         	movff	i2USBTransferOnePacket@handle+1,fsr2h
  7086  001BBE  0E00               	movlw	0
  7087  001BC0  8EDB               	bsf	plusw2,7,c
  7088                           
  7089                           ;usb_device.c: 1036: if(dir != 0)
  7090  001BC2  5012               	movf	i2USBTransferOnePacket@dir,w,c
  7091  001BC4  B4D8               	btfsc	status,2,c
  7092  001BC6  D007               	goto	i2l2576
  7093                           
  7094                           ;usb_device.c: 1037: {
  7095                           ;usb_device.c: 1039: {((uint8_t_VAL*)&pBDTEntryIn[ep])->Val ^= 0x0004;};
  7096  001BC8  5016               	movf	i2USBTransferOnePacket@ep,w,c
  7097  001BCA  0D02               	mullw	2
  7098  001BCC  0E68               	movlw	low _pBDTEntryIn
  7099  001BCE  24F3               	addwf	prodl,w,c
  7100  001BD0  6ED9               	movwf	fsr2l,c
  7101  001BD2  0E00               	movlw	high _pBDTEntryIn
  7102  001BD4  D006               	goto	L16
  7103  001BD6                     i2l2576:
  7104                           
  7105                           ;usb_device.c: 1041: else
  7106                           ;usb_device.c: 1042: {
  7107                           ;usb_device.c: 1044: {((uint8_t_VAL*)&pBDTEntryOut[ep])->Val ^= 0x0004;};
  7108  001BD6  5016               	movf	i2USBTransferOnePacket@ep,w,c
  7109  001BD8  0D02               	mullw	2
  7110  001BDA  0E6C               	movlw	low _pBDTEntryOut
  7111  001BDC  24F3               	addwf	prodl,w,c
  7112  001BDE  6ED9               	movwf	fsr2l,c
  7113  001BE0  0E00               	movlw	high _pBDTEntryOut
  7114  001BE2                     L16:
  7115  001BE2  20F4               	addwfc	prodh,w,c
  7116  001BE4  6EDA               	movwf	fsr2h,c
  7117  001BE6  0E04               	movlw	4
  7118  001BE8  1ADF               	xorwf	indf2,f,c
  7119  001BEA  D000               	goto	i2l2578
  7120  001BEC                     i2l2578:
  7121                           
  7122                           ;usb_device.c: 1045: }
  7123                           ;usb_device.c: 1046: return (void*)handle;
  7124  001BEC  C017  F012         	movff	i2USBTransferOnePacket@handle,?i2_USBTransferOnePacket
  7125  001BF0  C018  F013         	movff	i2USBTransferOnePacket@handle+1,?i2_USBTransferOnePacket+1
  7126  001BF4  D000               	goto	i2l384
  7127  001BF6                     i2l384:
  7128  001BF6  0012               	return		;funcret
  7129  001BF8                     __end_ofi2_USBTransferOnePacket:
  7130                           	opt stack 0
  7131                           pclatu	equ	0xFFB
  7132                           pclath	equ	0xFFA
  7133                           tblptru	equ	0xFF8
  7134                           tblptrh	equ	0xFF7
  7135                           tblptrl	equ	0xFF6
  7136                           tablat	equ	0xFF5
  7137                           prodh	equ	0xFF4
  7138                           prodl	equ	0xFF3
  7139                           intcon	equ	0xFF2
  7140                           postinc0	equ	0xFEE
  7141                           fsr0h	equ	0xFEA
  7142                           fsr0l	equ	0xFE9
  7143                           wreg	equ	0xFE8
  7144                           indf1	equ	0xFE7
  7145                           fsr1h	equ	0xFE2
  7146                           fsr1l	equ	0xFE1
  7147                           bsr	equ	0xFE0
  7148                           indf2	equ	0xFDF
  7149                           postinc2	equ	0xFDE
  7150                           postdec2	equ	0xFDD
  7151                           plusw2	equ	0xFDB
  7152                           fsr2h	equ	0xFDA
  7153                           fsr2l	equ	0xFD9
  7154                           status	equ	0xFD8
  7155                           
  7156 ;; *************** function _USBEnableEndpoint *****************
  7157 ;; Defined at:
  7158 ;;		line 878 in file "../src/usb/src/usb_device.c"
  7159 ;; Parameters:    Size  Location     Type
  7160 ;;  ep              1    wreg     unsigned char 
  7161 ;;  options         1   25[COMRAM] unsigned char 
  7162 ;; Auto vars:     Size  Location     Type
  7163 ;;  ep              1   28[COMRAM] unsigned char 
  7164 ;;  p               2   26[COMRAM] PTR unsigned char 
  7165 ;;		 -> UEP0(1), 
  7166 ;; Return value:  Size  Location     Type
  7167 ;;		None               void
  7168 ;; Registers used:
  7169 ;;		wreg, fsr2l, fsr2h, status,2, status,0, prodl, prodh, cstack
  7170 ;; Tracked objects:
  7171 ;;		On entry : 0/0
  7172 ;;		On exit  : 0/0
  7173 ;;		Unchanged: 0/0
  7174 ;; Data sizes:     COMRAM   BANK0   BANK1   BANK2   BANK3   BANK4   BANK5   BANK6   BANK7
  7175 ;;      Params:         1       0       0       0       0       0       0       0       0
  7176 ;;      Locals:         3       0       0       0       0       0       0       0       0
  7177 ;;      Temps:          0       0       0       0       0       0       0       0       0
  7178 ;;      Totals:         4       0       0       0       0       0       0       0       0
  7179 ;;Total ram usage:        4 bytes
  7180 ;; Hardware stack levels used:    1
  7181 ;; Hardware stack levels required when called:    1
  7182 ;; This function calls:
  7183 ;;		_USBConfigureEndpoint
  7184 ;; This function is called by:
  7185 ;;		_APP_CustomHIDInitialize
  7186 ;; This function uses a non-reentrant model
  7187 ;;
  7188                           
  7189                           	psect	text36
  7190  002078                     __ptext36:
  7191                           	opt stack 0
  7192  002078                     _USBEnableEndpoint:
  7193                           	opt stack 21
  7194                           
  7195                           ;incstack = 0
  7196                           ;USBEnableEndpoint@ep stored from wreg
  7197  002078  6E1D               	movwf	USBEnableEndpoint@ep,c
  7198                           
  7199                           ;usb_device.c: 880: unsigned char* p;
  7200                           ;usb_device.c: 884: if(options & 0x04)
  7201  00207A  A41A               	btfss	USBEnableEndpoint@options,2,c
  7202  00207C  D006               	goto	i2l2544
  7203                           
  7204                           ;usb_device.c: 885: {
  7205                           ;usb_device.c: 886: USBConfigureEndpoint(ep, 0);
  7206  00207E  0E00               	movlw	0
  7207  002080  6E12               	movwf	USBConfigureEndpoint@direction,c
  7208  002082  501D               	movf	USBEnableEndpoint@ep,w,c
  7209  002084  ECA5  F00E         	call	_USBConfigureEndpoint
  7210  002088  D000               	goto	i2l2544
  7211  00208A                     i2l2544:
  7212                           
  7213                           ;usb_device.c: 887: }
  7214                           ;usb_device.c: 888: if(options & 0x02)
  7215  00208A  A21A               	btfss	USBEnableEndpoint@options,1,c
  7216  00208C  D006               	goto	i2l2548
  7217                           
  7218                           ;usb_device.c: 889: {
  7219                           ;usb_device.c: 890: USBConfigureEndpoint(ep, 1);
  7220  00208E  0E01               	movlw	1
  7221  002090  6E12               	movwf	USBConfigureEndpoint@direction,c
  7222  002092  501D               	movf	USBEnableEndpoint@ep,w,c
  7223  002094  ECA5  F00E         	call	_USBConfigureEndpoint
  7224  002098  D000               	goto	i2l2548
  7225  00209A                     i2l2548:
  7226                           
  7227                           ;usb_device.c: 891: }
  7228                           ;usb_device.c: 899: p = (unsigned char*)(&UEP0+ep);
  7229  00209A  501D               	movf	USBEnableEndpoint@ep,w,c
  7230  00209C  0D01               	mullw	1
  7231  00209E  0E70               	movlw	112
  7232  0020A0  24F3               	addwf	prodl,w,c
  7233  0020A2  6E1B               	movwf	USBEnableEndpoint@p,c
  7234  0020A4  0E0F               	movlw	15
  7235  0020A6  20F4               	addwfc	prodh,w,c
  7236  0020A8  6E1C               	movwf	USBEnableEndpoint@p+1,c
  7237                           
  7238                           ;usb_device.c: 901: *p = options;
  7239  0020AA  C01B  FFD9         	movff	USBEnableEndpoint@p,fsr2l
  7240  0020AE  C01C  FFDA         	movff	USBEnableEndpoint@p+1,fsr2h
  7241  0020B2  C01A  FFDF         	movff	USBEnableEndpoint@options,indf2
  7242  0020B6  0012               	return		;funcret
  7243  0020B8                     __end_of_USBEnableEndpoint:
  7244                           	opt stack 0
  7245                           pclatu	equ	0xFFB
  7246                           pclath	equ	0xFFA
  7247                           tblptru	equ	0xFF8
  7248                           tblptrh	equ	0xFF7
  7249                           tblptrl	equ	0xFF6
  7250                           tablat	equ	0xFF5
  7251                           prodh	equ	0xFF4
  7252                           prodl	equ	0xFF3
  7253                           intcon	equ	0xFF2
  7254                           postinc0	equ	0xFEE
  7255                           fsr0h	equ	0xFEA
  7256                           fsr0l	equ	0xFE9
  7257                           wreg	equ	0xFE8
  7258                           indf1	equ	0xFE7
  7259                           fsr1h	equ	0xFE2
  7260                           fsr1l	equ	0xFE1
  7261                           bsr	equ	0xFE0
  7262                           indf2	equ	0xFDF
  7263                           postinc2	equ	0xFDE
  7264                           postdec2	equ	0xFDD
  7265                           plusw2	equ	0xFDB
  7266                           fsr2h	equ	0xFDA
  7267                           fsr2l	equ	0xFD9
  7268                           status	equ	0xFD8
  7269                           
  7270 ;; *************** function _USBConfigureEndpoint *****************
  7271 ;; Defined at:
  7272 ;;		line 1543 in file "../src/usb/src/usb_device.c"
  7273 ;; Parameters:    Size  Location     Type
  7274 ;;  EPNum           1    wreg     unsigned char 
  7275 ;;  direction       1   17[COMRAM] unsigned char 
  7276 ;; Auto vars:     Size  Location     Type
  7277 ;;  EPNum           1   22[COMRAM] unsigned char 
  7278 ;;  handle          2   23[COMRAM] PTR volatile struct __BD
  7279 ;;		 -> BDT(32), 
  7280 ;; Return value:  Size  Location     Type
  7281 ;;		None               void
  7282 ;; Registers used:
  7283 ;;		wreg, fsr2l, fsr2h, status,2, status,0, prodl, prodh
  7284 ;; Tracked objects:
  7285 ;;		On entry : 0/0
  7286 ;;		On exit  : 0/0
  7287 ;;		Unchanged: 0/0
  7288 ;; Data sizes:     COMRAM   BANK0   BANK1   BANK2   BANK3   BANK4   BANK5   BANK6   BANK7
  7289 ;;      Params:         1       0       0       0       0       0       0       0       0
  7290 ;;      Locals:         3       0       0       0       0       0       0       0       0
  7291 ;;      Temps:          4       0       0       0       0       0       0       0       0
  7292 ;;      Totals:         8       0       0       0       0       0       0       0       0
  7293 ;;Total ram usage:        8 bytes
  7294 ;; Hardware stack levels used:    1
  7295 ;; This function calls:
  7296 ;;		Nothing
  7297 ;; This function is called by:
  7298 ;;		_USBEnableEndpoint
  7299 ;; This function uses a non-reentrant model
  7300 ;;
  7301                           
  7302                           	psect	text37
  7303  001D4A                     __ptext37:
  7304                           	opt stack 0
  7305  001D4A                     _USBConfigureEndpoint:
  7306                           	opt stack 21
  7307                           
  7308                           ;incstack = 0
  7309                           ;USBConfigureEndpoint@EPNum stored from wreg
  7310  001D4A  6E17               	movwf	USBConfigureEndpoint@EPNum,c
  7311                           
  7312                           ;usb_device.c: 1545: volatile BDT_ENTRY* handle;
  7313                           ;usb_device.c: 1549: handle = (volatile BDT_ENTRY*)&BDT[0];
  7314  001D4C  0E00               	movlw	0
  7315  001D4E  6E18               	movwf	USBConfigureEndpoint@handle,c
  7316  001D50  0E04               	movlw	4
  7317  001D52  6E19               	movwf	USBConfigureEndpoint@handle+1,c
  7318                           
  7319                           ;usb_device.c: 1550: handle += (4*EPNum+2*direction+0u);
  7320  001D54  5012               	movf	USBConfigureEndpoint@direction,w,c
  7321  001D56  6E13               	movwf	??_USBConfigureEndpoint& (0+255),c
  7322  001D58  6A14               	clrf	(??_USBConfigureEndpoint+1)& (0+255),c
  7323  001D5A  90D8               	bcf	status,0,c
  7324  001D5C  3613               	rlcf	??_USBConfigureEndpoint,f,c
  7325  001D5E  3614               	rlcf	??_USBConfigureEndpoint+1,f,c
  7326  001D60  5017               	movf	USBConfigureEndpoint@EPNum,w,c
  7327  001D62  6E15               	movwf	(??_USBConfigureEndpoint+2)& (0+255),c
  7328  001D64  6A16               	clrf	(??_USBConfigureEndpoint+3)& (0+255),c
  7329  001D66  90D8               	bcf	status,0,c
  7330  001D68  3615               	rlcf	??_USBConfigureEndpoint+2,f,c
  7331  001D6A  3616               	rlcf	??_USBConfigureEndpoint+3,f,c
  7332  001D6C  90D8               	bcf	status,0,c
  7333  001D6E  3615               	rlcf	??_USBConfigureEndpoint+2,f,c
  7334  001D70  3616               	rlcf	??_USBConfigureEndpoint+3,f,c
  7335  001D72  5013               	movf	??_USBConfigureEndpoint,w,c
  7336  001D74  2615               	addwf	??_USBConfigureEndpoint+2,f,c
  7337  001D76  5014               	movf	??_USBConfigureEndpoint+1,w,c
  7338  001D78  2216               	addwfc	??_USBConfigureEndpoint+3,f,c
  7339  001D7A  90D8               	bcf	status,0,c
  7340  001D7C  3615               	rlcf	??_USBConfigureEndpoint+2,f,c
  7341  001D7E  3616               	rlcf	??_USBConfigureEndpoint+3,f,c
  7342  001D80  90D8               	bcf	status,0,c
  7343  001D82  3615               	rlcf	??_USBConfigureEndpoint+2,f,c
  7344  001D84  3616               	rlcf	??_USBConfigureEndpoint+3,f,c
  7345  001D86  5015               	movf	??_USBConfigureEndpoint+2,w,c
  7346  001D88  2618               	addwf	USBConfigureEndpoint@handle,f,c
  7347  001D8A  5016               	movf	??_USBConfigureEndpoint+3,w,c
  7348  001D8C  2219               	addwfc	USBConfigureEndpoint@handle+1,f,c
  7349                           
  7350                           ;usb_device.c: 1552: handle->STAT.UOWN = 0;
  7351  001D8E  C018  FFD9         	movff	USBConfigureEndpoint@handle,fsr2l
  7352  001D92  C019  FFDA         	movff	USBConfigureEndpoint@handle+1,fsr2h
  7353  001D96  9EDF               	bcf	indf2,7,c
  7354                           
  7355                           ;usb_device.c: 1557: if(direction == 0)
  7356  001D98  5012               	movf	USBConfigureEndpoint@direction,w,c
  7357  001D9A  A4D8               	btfss	status,2,c
  7358  001D9C  D007               	goto	i2l2534
  7359                           
  7360                           ;usb_device.c: 1558: {
  7361                           ;usb_device.c: 1559: pBDTEntryOut[EPNum] = handle;
  7362  001D9E  5017               	movf	USBConfigureEndpoint@EPNum,w,c
  7363  001DA0  0D02               	mullw	2
  7364  001DA2  0E6C               	movlw	low _pBDTEntryOut
  7365  001DA4  24F3               	addwf	prodl,w,c
  7366  001DA6  6ED9               	movwf	fsr2l,c
  7367  001DA8  0E00               	movlw	high _pBDTEntryOut
  7368  001DAA  D006               	goto	L17
  7369  001DAC                     i2l2534:
  7370                           
  7371                           ;usb_device.c: 1561: else
  7372                           ;usb_device.c: 1562: {
  7373                           ;usb_device.c: 1563: pBDTEntryIn[EPNum] = handle;
  7374  001DAC  5017               	movf	USBConfigureEndpoint@EPNum,w,c
  7375  001DAE  0D02               	mullw	2
  7376  001DB0  0E68               	movlw	low _pBDTEntryIn
  7377  001DB2  24F3               	addwf	prodl,w,c
  7378  001DB4  6ED9               	movwf	fsr2l,c
  7379  001DB6  0E00               	movlw	high _pBDTEntryIn
  7380  001DB8                     L17:
  7381  001DB8  20F4               	addwfc	prodh,w,c
  7382  001DBA  6EDA               	movwf	fsr2h,c
  7383  001DBC  C018  FFDE         	movff	USBConfigureEndpoint@handle,postinc2
  7384  001DC0  C019  FFDD         	movff	USBConfigureEndpoint@handle+1,postdec2
  7385  001DC4  D000               	goto	i2l2536
  7386  001DC6                     i2l2536:
  7387                           
  7388                           ;usb_device.c: 1564: }
  7389                           ;usb_device.c: 1567: handle->STAT.DTS = 0;
  7390  001DC6  C018  FFD9         	movff	USBConfigureEndpoint@handle,fsr2l
  7391  001DCA  C019  FFDA         	movff	USBConfigureEndpoint@handle+1,fsr2h
  7392  001DCE  9CDF               	bcf	indf2,6,c
  7393                           
  7394                           ;usb_device.c: 1568: (handle+1)->STAT.DTS = 1;
  7395  001DD0  EE20 F004          	lfsr	2,4
  7396  001DD4  5018               	movf	USBConfigureEndpoint@handle,w,c
  7397  001DD6  26D9               	addwf	fsr2l,f,c
  7398  001DD8  5019               	movf	USBConfigureEndpoint@handle+1,w,c
  7399  001DDA  22DA               	addwfc	fsr2h,f,c
  7400  001DDC  8CDF               	bsf	indf2,6,c
  7401  001DDE  0012               	return		;funcret
  7402  001DE0                     __end_of_USBConfigureEndpoint:
  7403                           	opt stack 0
  7404                           pclatu	equ	0xFFB
  7405                           pclath	equ	0xFFA
  7406                           tblptru	equ	0xFF8
  7407                           tblptrh	equ	0xFF7
  7408                           tblptrl	equ	0xFF6
  7409                           tablat	equ	0xFF5
  7410                           prodh	equ	0xFF4
  7411                           prodl	equ	0xFF3
  7412                           intcon	equ	0xFF2
  7413                           postinc0	equ	0xFEE
  7414                           fsr0h	equ	0xFEA
  7415                           fsr0l	equ	0xFE9
  7416                           wreg	equ	0xFE8
  7417                           indf1	equ	0xFE7
  7418                           fsr1h	equ	0xFE2
  7419                           fsr1l	equ	0xFE1
  7420                           bsr	equ	0xFE0
  7421                           indf2	equ	0xFDF
  7422                           postinc2	equ	0xFDE
  7423                           postdec2	equ	0xFDD
  7424                           plusw2	equ	0xFDB
  7425                           fsr2h	equ	0xFDA
  7426                           fsr2l	equ	0xFD9
  7427                           status	equ	0xFD8
  7428                           
  7429 ;; *************** function _USBCtrlTrfOutHandler *****************
  7430 ;; Defined at:
  7431 ;;		line 2541 in file "../src/usb/src/usb_device.c"
  7432 ;; Parameters:    Size  Location     Type
  7433 ;;		None
  7434 ;; Auto vars:     Size  Location     Type
  7435 ;;		None
  7436 ;; Return value:  Size  Location     Type
  7437 ;;		None               void
  7438 ;; Registers used:
  7439 ;;		wreg, fsr1l, fsr1h, fsr2l, fsr2h, status,2, status,0, prodl, prodh, cstack
  7440 ;; Tracked objects:
  7441 ;;		On entry : 0/0
  7442 ;;		On exit  : 0/0
  7443 ;;		Unchanged: 0/0
  7444 ;; Data sizes:     COMRAM   BANK0   BANK1   BANK2   BANK3   BANK4   BANK5   BANK6   BANK7
  7445 ;;      Params:         0       0       0       0       0       0       0       0       0
  7446 ;;      Locals:         0       0       0       0       0       0       0       0       0
  7447 ;;      Temps:          0       0       0       0       0       0       0       0       0
  7448 ;;      Totals:         0       0       0       0       0       0       0       0       0
  7449 ;;Total ram usage:        0 bytes
  7450 ;; Hardware stack levels used:    1
  7451 ;; Hardware stack levels required when called:    2
  7452 ;; This function calls:
  7453 ;;		_USBCtrlTrfRxService
  7454 ;; This function is called by:
  7455 ;;		_USBCtrlEPService
  7456 ;; This function uses a non-reentrant model
  7457 ;;
  7458                           
  7459                           	psect	text38
  7460  001FD6                     __ptext38:
  7461                           	opt stack 0
  7462  001FD6                     _USBCtrlTrfOutHandler:
  7463                           	opt stack 21
  7464                           
  7465                           ;usb_device.c: 2543: if(controlTransferState == 2)
  7466                           
  7467                           ;incstack = 0
  7468  001FD6  0E02               	movlw	2
  7469  001FD8  1843               	xorwf	_controlTransferState,w,c	;volatile
  7470  001FDA  A4D8               	btfss	status,2,c
  7471  001FDC  D003               	goto	i2l3136
  7472                           
  7473                           ;usb_device.c: 2544: {
  7474                           ;usb_device.c: 2545: USBCtrlTrfRxService();
  7475  001FDE  EC12  F009         	call	_USBCtrlTrfRxService	;wreg free
  7476                           
  7477                           ;usb_device.c: 2546: }
  7478  001FE2  D027               	goto	i2l535
  7479  001FE4                     i2l3136:
  7480                           
  7481                           ;usb_device.c: 2547: else
  7482                           ;usb_device.c: 2548: {
  7483                           ;usb_device.c: 2551: controlTransferState = 0;
  7484  001FE4  0E00               	movlw	0
  7485  001FE6  6E43               	movwf	_controlTransferState,c	;volatile
  7486                           
  7487                           ;usb_device.c: 2558: if(BothEP0OutUOWNsSet == 0)
  7488  001FE8  503A               	movf	_BothEP0OutUOWNsSet,w,c	;volatile
  7489  001FEA  A4D8               	btfss	status,2,c
  7490  001FEC  D01F               	goto	i2l3144
  7491                           
  7492                           ;usb_device.c: 2559: {
  7493                           ;usb_device.c: 2560: pBDTEntryEP0OutNext->CNT = 8;
  7494  001FEE  EE20 F001          	lfsr	2,1
  7495  001FF2  5036               	movf	_pBDTEntryEP0OutNext,w,c
  7496  001FF4  26D9               	addwf	fsr2l,f,c
  7497  001FF6  5037               	movf	_pBDTEntryEP0OutNext+1,w,c
  7498  001FF8  22DA               	addwfc	fsr2h,f,c
  7499  001FFA  0E08               	movlw	8
  7500  001FFC  6EDF               	movwf	indf2,c
  7501                           
  7502                           ;usb_device.c: 2561: pBDTEntryEP0OutNext->ADR = ((uint16_t)(&SetupPkt));
  7503  001FFE  EE20 F002          	lfsr	2,2
  7504  002002  5036               	movf	_pBDTEntryEP0OutNext,w,c
  7505  002004  26D9               	addwf	fsr2l,f,c
  7506  002006  5037               	movf	_pBDTEntryEP0OutNext+1,w,c
  7507  002008  22DA               	addwfc	fsr2h,f,c
  7508  00200A  0E20               	movlw	32
  7509  00200C  6EDE               	movwf	postinc2,c
  7510  00200E  0E04               	movlw	4
  7511  002010  6EDD               	movwf	postdec2,c
  7512                           
  7513                           ;usb_device.c: 2562: pBDTEntryEP0OutNext->STAT.Val = 0x00|(0x08 & 0x08)|0x04;
  7514  002012  C036  FFD9         	movff	_pBDTEntryEP0OutNext,fsr2l
  7515  002016  C037  FFDA         	movff	_pBDTEntryEP0OutNext+1,fsr2h
  7516  00201A  0E0C               	movlw	12
  7517  00201C  6EDF               	movwf	indf2,c
  7518                           
  7519                           ;usb_device.c: 2563: pBDTEntryEP0OutNext->STAT.Val |= 0x80;
  7520  00201E  C036  FFD9         	movff	_pBDTEntryEP0OutNext,fsr2l
  7521  002022  C037  FFDA         	movff	_pBDTEntryEP0OutNext+1,fsr2h
  7522  002026  0E00               	movlw	0
  7523  002028  8EDB               	bsf	plusw2,7,c
  7524                           
  7525                           ;usb_device.c: 2564: }
  7526  00202A  D003               	goto	i2l535
  7527  00202C                     i2l3144:
  7528                           
  7529                           ;usb_device.c: 2565: else
  7530                           ;usb_device.c: 2566: {
  7531                           ;usb_device.c: 2567: BothEP0OutUOWNsSet = 0;
  7532  00202C  0E00               	movlw	0
  7533  00202E  6E3A               	movwf	_BothEP0OutUOWNsSet,c	;volatile
  7534  002030  D000               	goto	i2l535
  7535  002032                     i2l535:
  7536  002032  0012               	return		;funcret
  7537  002034                     __end_of_USBCtrlTrfOutHandler:
  7538                           	opt stack 0
  7539                           pclatu	equ	0xFFB
  7540                           pclath	equ	0xFFA
  7541                           tblptru	equ	0xFF8
  7542                           tblptrh	equ	0xFF7
  7543                           tblptrl	equ	0xFF6
  7544                           tablat	equ	0xFF5
  7545                           prodh	equ	0xFF4
  7546                           prodl	equ	0xFF3
  7547                           intcon	equ	0xFF2
  7548                           postinc0	equ	0xFEE
  7549                           fsr0h	equ	0xFEA
  7550                           fsr0l	equ	0xFE9
  7551                           wreg	equ	0xFE8
  7552                           indf1	equ	0xFE7
  7553                           fsr1h	equ	0xFE2
  7554                           fsr1l	equ	0xFE1
  7555                           bsr	equ	0xFE0
  7556                           indf2	equ	0xFDF
  7557                           postinc2	equ	0xFDE
  7558                           postdec2	equ	0xFDD
  7559                           plusw2	equ	0xFDB
  7560                           fsr2h	equ	0xFDA
  7561                           fsr2l	equ	0xFD9
  7562                           status	equ	0xFD8
  7563                           
  7564 ;; *************** function _USBCtrlTrfRxService *****************
  7565 ;; Defined at:
  7566 ;;		line 1852 in file "../src/usb/src/usb_device.c"
  7567 ;; Parameters:    Size  Location     Type
  7568 ;;		None
  7569 ;; Auto vars:     Size  Location     Type
  7570 ;;  byteToRead      1   18[COMRAM] unsigned char 
  7571 ;;  i               1   17[COMRAM] unsigned char 
  7572 ;; Return value:  Size  Location     Type
  7573 ;;		None               void
  7574 ;; Registers used:
  7575 ;;		wreg, fsr1l, fsr1h, fsr2l, fsr2h, status,2, status,0, prodl, prodh, cstack
  7576 ;; Tracked objects:
  7577 ;;		On entry : 0/0
  7578 ;;		On exit  : 0/0
  7579 ;;		Unchanged: 0/0
  7580 ;; Data sizes:     COMRAM   BANK0   BANK1   BANK2   BANK3   BANK4   BANK5   BANK6   BANK7
  7581 ;;      Params:         0       0       0       0       0       0       0       0       0
  7582 ;;      Locals:         2       0       0       0       0       0       0       0       0
  7583 ;;      Temps:          0       0       0       0       0       0       0       0       0
  7584 ;;      Totals:         2       0       0       0       0       0       0       0       0
  7585 ;;Total ram usage:        2 bytes
  7586 ;; Hardware stack levels used:    1
  7587 ;; Hardware stack levels required when called:    1
  7588 ;; This function calls:
  7589 ;;		_USBCtrlEPAllowStatusStage
  7590 ;; This function is called by:
  7591 ;;		_USBCtrlTrfOutHandler
  7592 ;; This function uses a non-reentrant model
  7593 ;;
  7594                           
  7595                           	psect	text39
  7596  001224                     __ptext39:
  7597                           	opt stack 0
  7598  001224                     _USBCtrlTrfRxService:
  7599                           	opt stack 21
  7600                           
  7601                           ;usb_device.c: 1854: uint8_t byteToRead;
  7602                           ;usb_device.c: 1855: uint8_t i;
  7603                           ;usb_device.c: 1859: byteToRead = pBDTEntryEP0OutCurrent->CNT;
  7604                           
  7605                           ;incstack = 0
  7606  001224  EE20 F001          	lfsr	2,1
  7607  001228  5034               	movf	_pBDTEntryEP0OutCurrent,w,c
  7608  00122A  26D9               	addwf	fsr2l,f,c
  7609  00122C  5035               	movf	_pBDTEntryEP0OutCurrent+1,w,c
  7610  00122E  22DA               	addwfc	fsr2h,f,c
  7611  001230  50DF               	movf	indf2,w,c
  7612  001232  6E13               	movwf	USBCtrlTrfRxService@byteToRead,c
  7613                           
  7614                           ;usb_device.c: 1865: if(byteToRead > outPipes[0].wCount.Val)
  7615  001234  5013               	movf	USBCtrlTrfRxService@byteToRead,w,c
  7616  001236  0100               	movlb	0	; () banked
  7617  001238  5D64               	subwf	(_outPipes+4)& (0+255),w,b	;volatile
  7618  00123A  0E00               	movlw	0
  7619  00123C  5965               	subwfb	(_outPipes+5)& (0+255),w,b	;volatile
  7620  00123E  B0D8               	btfsc	status,0,c
  7621  001240  D003               	goto	i2l3018
  7622                           
  7623                           ; BSR set to: 0
  7624                           ;usb_device.c: 1866: {
  7625                           ;usb_device.c: 1867: byteToRead = outPipes[0].wCount.Val;
  7626  001242  C064  F013         	movff	_outPipes+4,USBCtrlTrfRxService@byteToRead	;volatile
  7627  001246  D000               	goto	i2l3018
  7628  001248                     i2l3018:
  7629                           
  7630                           ; BSR set to: 0
  7631                           ;usb_device.c: 1868: }
  7632                           ;usb_device.c: 1870: outPipes[0].wCount.Val -= byteToRead;
  7633  001248  5013               	movf	USBCtrlTrfRxService@byteToRead,w,c
  7634  00124A  0100               	movlb	0	; () banked
  7635  00124C  5F64               	subwf	(_outPipes+4)& (0+255),f,b	;volatile
  7636  00124E  0E00               	movlw	0
  7637  001250  5B65               	subwfb	(_outPipes+5)& (0+255),f,b	;volatile
  7638                           
  7639                           ; BSR set to: 0
  7640                           ;usb_device.c: 1874: for(i=0;i<byteToRead;i++)
  7641  001252  0E00               	movlw	0
  7642  001254  6E12               	movwf	USBCtrlTrfRxService@i,c
  7643  001256  D013               	goto	i2l3028
  7644  001258                     i2l3022:
  7645                           
  7646                           ; BSR set to: 0
  7647                           ;usb_device.c: 1875: {
  7648                           ;usb_device.c: 1876: *outPipes[0].pDst.bRam++ = CtrlTrfData[i];
  7649  001258  5012               	movf	USBCtrlTrfRxService@i,w,c
  7650  00125A  0D01               	mullw	1
  7651  00125C  0E28               	movlw	40
  7652  00125E  24F3               	addwf	prodl,w,c
  7653  001260  6ED9               	movwf	fsr2l,c
  7654  001262  0E04               	movlw	4
  7655  001264  20F4               	addwfc	prodh,w,c
  7656  001266  6EDA               	movwf	fsr2h,c
  7657  001268  C060  FFE1         	movff	_outPipes,fsr1l	;volatile
  7658  00126C  C061  FFE2         	movff	_outPipes+1,fsr1h	;volatile
  7659  001270  CFDF FFE7          	movff	indf2,indf1
  7660                           
  7661                           ; BSR set to: 0
  7662  001274  0100               	movlb	0	; () banked
  7663  001276  4B60               	infsnz	_outPipes& (0+255),f,b	;volatile
  7664  001278  2B61               	incf	(_outPipes+1)& (0+255),f,b	;volatile
  7665                           
  7666                           ; BSR set to: 0
  7667  00127A  2A12               	incf	USBCtrlTrfRxService@i,f,c
  7668  00127C  D000               	goto	i2l3028
  7669  00127E                     i2l3028:
  7670                           
  7671                           ; BSR set to: 0
  7672  00127E  5013               	movf	USBCtrlTrfRxService@byteToRead,w,c
  7673  001280  5C12               	subwf	USBCtrlTrfRxService@i,w,c
  7674  001282  A0D8               	btfss	status,0,c
  7675  001284  D7E9               	goto	i2l3022
  7676                           
  7677                           ; BSR set to: 0
  7678                           ;usb_device.c: 1877: }
  7679                           ;usb_device.c: 1881: if(outPipes[0].wCount.Val > 0)
  7680                           
  7681                           ; BSR set to: 0
  7682  001286  0100               	movlb	0	; () banked
  7683  001288  5164               	movf	(_outPipes+4)& (0+255),w,b	;volatile
  7684  00128A  0100               	movlb	0	; () banked
  7685  00128C  1165               	iorwf	(_outPipes+5)& (0+255),w,b	;volatile
  7686  00128E  B4D8               	btfsc	status,2,c
  7687  001290  D02D               	goto	i2l3044
  7688                           
  7689                           ; BSR set to: 0
  7690                           ;usb_device.c: 1882: {
  7691                           ;usb_device.c: 1883: pBDTEntryEP0OutNext->CNT = 8;
  7692  001292  EE20 F001          	lfsr	2,1
  7693  001296  5036               	movf	_pBDTEntryEP0OutNext,w,c
  7694  001298  26D9               	addwf	fsr2l,f,c
  7695  00129A  5037               	movf	_pBDTEntryEP0OutNext+1,w,c
  7696  00129C  22DA               	addwfc	fsr2h,f,c
  7697  00129E  0E08               	movlw	8
  7698  0012A0  6EDF               	movwf	indf2,c
  7699                           
  7700                           ;usb_device.c: 1884: pBDTEntryEP0OutNext->ADR = ((uint16_t)(&CtrlTrfData));
  7701  0012A2  EE20 F002          	lfsr	2,2
  7702  0012A6  5036               	movf	_pBDTEntryEP0OutNext,w,c
  7703  0012A8  26D9               	addwf	fsr2l,f,c
  7704  0012AA  5037               	movf	_pBDTEntryEP0OutNext+1,w,c
  7705  0012AC  22DA               	addwfc	fsr2h,f,c
  7706  0012AE  0E28               	movlw	40
  7707  0012B0  6EDE               	movwf	postinc2,c
  7708  0012B2  0E04               	movlw	4
  7709  0012B4  6EDD               	movwf	postdec2,c
  7710                           
  7711                           ; BSR set to: 0
  7712                           ;usb_device.c: 1885: if(pBDTEntryEP0OutCurrent->STAT.DTS == 0)
  7713  0012B6  C034  FFD9         	movff	_pBDTEntryEP0OutCurrent,fsr2l
  7714  0012BA  C035  FFDA         	movff	_pBDTEntryEP0OutCurrent+1,fsr2h
  7715  0012BE  BCDF               	btfsc	indf2,6,c
  7716  0012C0  D00D               	goto	i2l3040
  7717                           
  7718                           ; BSR set to: 0
  7719                           ;usb_device.c: 1886: {
  7720                           ;usb_device.c: 1887: pBDTEntryEP0OutNext->STAT.Val = 0x40|(0x08 & 0x08);
  7721  0012C2  C036  FFD9         	movff	_pBDTEntryEP0OutNext,fsr2l
  7722  0012C6  C037  FFDA         	movff	_pBDTEntryEP0OutNext+1,fsr2h
  7723  0012CA  0E48               	movlw	72
  7724  0012CC  D00C               	goto	L18
  7725  0012CE                     i2l3038:
  7726                           
  7727                           ; BSR set to: 0
  7728                           ;usb_device.c: 1888: pBDTEntryEP0OutNext->STAT.Val |= 0x80;
  7729  0012CE  C036  FFD9         	movff	_pBDTEntryEP0OutNext,fsr2l
  7730  0012D2  C037  FFDA         	movff	_pBDTEntryEP0OutNext+1,fsr2h
  7731  0012D6  0E00               	movlw	0
  7732  0012D8  8EDB               	bsf	plusw2,7,c
  7733                           
  7734                           ;usb_device.c: 1889: }
  7735  0012DA  D02E               	goto	i2l466
  7736  0012DC                     i2l3040:
  7737                           
  7738                           ; BSR set to: 0
  7739                           ;usb_device.c: 1890: else
  7740                           ;usb_device.c: 1891: {
  7741                           ;usb_device.c: 1892: pBDTEntryEP0OutNext->STAT.Val = 0x00|(0x08 & 0x08);
  7742  0012DC  C036  FFD9         	movff	_pBDTEntryEP0OutNext,fsr2l
  7743  0012E0  C037  FFDA         	movff	_pBDTEntryEP0OutNext+1,fsr2h
  7744  0012E4  0E08               	movlw	8
  7745  0012E6                     L18:
  7746  0012E6  6EDF               	movwf	indf2,c
  7747  0012E8  D7F2               	goto	i2l3038
  7748                           
  7749                           ; BSR set to: 0
  7750                           ;usb_device.c: 1894: }
  7751                           ;usb_device.c: 1895: }
  7752                           
  7753                           ; BSR set to: 0
  7754                           ;usb_device.c: 1893: pBDTEntryEP0OutNext->STAT.Val |= 0x80;
  7755  0012EA  D026               	goto	i2l466
  7756  0012EC                     i2l3044:
  7757                           
  7758                           ; BSR set to: 0
  7759                           ;usb_device.c: 1896: else
  7760                           ;usb_device.c: 1897: {
  7761                           ;usb_device.c: 1901: pBDTEntryEP0OutNext->CNT = 8;
  7762  0012EC  EE20 F001          	lfsr	2,1
  7763  0012F0  5036               	movf	_pBDTEntryEP0OutNext,w,c
  7764  0012F2  26D9               	addwf	fsr2l,f,c
  7765  0012F4  5037               	movf	_pBDTEntryEP0OutNext+1,w,c
  7766  0012F6  22DA               	addwfc	fsr2h,f,c
  7767  0012F8  0E08               	movlw	8
  7768  0012FA  6EDF               	movwf	indf2,c
  7769                           
  7770                           ;usb_device.c: 1902: pBDTEntryEP0OutNext->ADR = ((uint16_t)(&SetupPkt));
  7771  0012FC  EE20 F002          	lfsr	2,2
  7772  001300  5036               	movf	_pBDTEntryEP0OutNext,w,c
  7773  001302  26D9               	addwf	fsr2l,f,c
  7774  001304  5037               	movf	_pBDTEntryEP0OutNext+1,w,c
  7775  001306  22DA               	addwfc	fsr2h,f,c
  7776  001308  0E20               	movlw	32
  7777  00130A  6EDE               	movwf	postinc2,c
  7778  00130C  0E04               	movlw	4
  7779  00130E  6EDD               	movwf	postdec2,c
  7780                           
  7781                           ; BSR set to: 0
  7782                           ;usb_device.c: 1906: pBDTEntryEP0OutNext->STAT.Val = 0x04;
  7783  001310  C036  FFD9         	movff	_pBDTEntryEP0OutNext,fsr2l
  7784  001314  C037  FFDA         	movff	_pBDTEntryEP0OutNext+1,fsr2h
  7785  001318  0E04               	movlw	4
  7786  00131A  6EDF               	movwf	indf2,c
  7787                           
  7788                           ; BSR set to: 0
  7789                           ;usb_device.c: 1907: pBDTEntryEP0OutNext->STAT.Val |= 0x80;
  7790  00131C  C036  FFD9         	movff	_pBDTEntryEP0OutNext,fsr2l
  7791  001320  C037  FFDA         	movff	_pBDTEntryEP0OutNext+1,fsr2h
  7792  001324  0E00               	movlw	0
  7793  001326  8EDB               	bsf	plusw2,7,c
  7794                           
  7795                           ; BSR set to: 0
  7796                           ;usb_device.c: 1926: }
  7797                           ;usb_device.c: 1927: outPipes[0].info.bits.busy = 0;
  7798                           
  7799                           ; BSR set to: 0
  7800                           ;usb_device.c: 1915: {
  7801                           ;usb_device.c: 1921: outPipes[0].pFunc();
  7802  001328  0100               	movlb	0	; () banked
  7803  00132A  9F63               	bcf	(_outPipes+3)& (0+255),7,b	;volatile
  7804                           
  7805                           ; BSR set to: 0
  7806                           ;usb_device.c: 1941: if(USBDeferStatusStagePacket == 0)
  7807  00132C  503F               	movf	_USBDeferStatusStagePacket,w,c	;volatile
  7808  00132E  A4D8               	btfss	status,2,c
  7809  001330  D003               	goto	i2l466
  7810                           
  7811                           ; BSR set to: 0
  7812                           ;usb_device.c: 1942: {
  7813                           ;usb_device.c: 1943: USBCtrlEPAllowStatusStage();
  7814  001332  EC39  F00D         	call	_USBCtrlEPAllowStatusStage	;wreg free
  7815  001336  D000               	goto	i2l466
  7816  001338                     i2l466:
  7817  001338  0012               	return		;funcret
  7818  00133A                     __end_of_USBCtrlTrfRxService:
  7819                           	opt stack 0
  7820                           pclatu	equ	0xFFB
  7821                           pclath	equ	0xFFA
  7822                           tblptru	equ	0xFF8
  7823                           tblptrh	equ	0xFF7
  7824                           tblptrl	equ	0xFF6
  7825                           tablat	equ	0xFF5
  7826                           prodh	equ	0xFF4
  7827                           prodl	equ	0xFF3
  7828                           intcon	equ	0xFF2
  7829                           postinc0	equ	0xFEE
  7830                           fsr0h	equ	0xFEA
  7831                           fsr0l	equ	0xFE9
  7832                           wreg	equ	0xFE8
  7833                           indf1	equ	0xFE7
  7834                           fsr1h	equ	0xFE2
  7835                           fsr1l	equ	0xFE1
  7836                           bsr	equ	0xFE0
  7837                           indf2	equ	0xFDF
  7838                           postinc2	equ	0xFDE
  7839                           postdec2	equ	0xFDD
  7840                           plusw2	equ	0xFDB
  7841                           fsr2h	equ	0xFDA
  7842                           fsr2l	equ	0xFD9
  7843                           status	equ	0xFD8
  7844                           
  7845 ;; *************** function _USBCtrlEPAllowStatusStage *****************
  7846 ;; Defined at:
  7847 ;;		line 1416 in file "../src/usb/src/usb_device.c"
  7848 ;; Parameters:    Size  Location     Type
  7849 ;;		None
  7850 ;; Auto vars:     Size  Location     Type
  7851 ;;		None
  7852 ;; Return value:  Size  Location     Type
  7853 ;;		None               void
  7854 ;; Registers used:
  7855 ;;		wreg, fsr2l, fsr2h, status,2, status,0
  7856 ;; Tracked objects:
  7857 ;;		On entry : 0/0
  7858 ;;		On exit  : 0/0
  7859 ;;		Unchanged: 0/0
  7860 ;; Data sizes:     COMRAM   BANK0   BANK1   BANK2   BANK3   BANK4   BANK5   BANK6   BANK7
  7861 ;;      Params:         0       0       0       0       0       0       0       0       0
  7862 ;;      Locals:         0       0       0       0       0       0       0       0       0
  7863 ;;      Temps:          0       0       0       0       0       0       0       0       0
  7864 ;;      Totals:         0       0       0       0       0       0       0       0       0
  7865 ;;Total ram usage:        0 bytes
  7866 ;; Hardware stack levels used:    1
  7867 ;; This function calls:
  7868 ;;		Nothing
  7869 ;; This function is called by:
  7870 ;;		_USBDeviceTasks
  7871 ;;		_USBCtrlEPServiceComplete
  7872 ;;		_USBCtrlTrfRxService
  7873 ;; This function uses a non-reentrant model
  7874 ;;
  7875                           
  7876                           	psect	text40
  7877  001A72                     __ptext40:
  7878                           	opt stack 0
  7879  001A72                     _USBCtrlEPAllowStatusStage:
  7880                           	opt stack 21
  7881                           
  7882                           ;usb_device.c: 1423: if(USBStatusStageEnabledFlag1 == 0)
  7883                           
  7884                           ;incstack = 0
  7885  001A72  5040               	movf	_USBStatusStageEnabledFlag1,w,c	;volatile
  7886  001A74  A4D8               	btfss	status,2,c
  7887  001A76  D05F               	goto	i2l414
  7888                           
  7889                           ;usb_device.c: 1424: {
  7890                           ;usb_device.c: 1425: USBStatusStageEnabledFlag1 = 1;
  7891  001A78  0E01               	movlw	1
  7892  001A7A  6E40               	movwf	_USBStatusStageEnabledFlag1,c	;volatile
  7893                           
  7894                           ;usb_device.c: 1426: if(USBStatusStageEnabledFlag2 == 0)
  7895  001A7C  5041               	movf	_USBStatusStageEnabledFlag2,w,c	;volatile
  7896  001A7E  A4D8               	btfss	status,2,c
  7897  001A80  D05A               	goto	i2l414
  7898                           
  7899                           ;usb_device.c: 1427: {
  7900                           ;usb_device.c: 1428: USBStatusStageEnabledFlag2 = 1;
  7901  001A82  0E01               	movlw	1
  7902  001A84  6E41               	movwf	_USBStatusStageEnabledFlag2,c	;volatile
  7903                           
  7904                           ;usb_device.c: 1432: if(controlTransferState == 2)
  7905  001A86  0E02               	movlw	2
  7906  001A88  1843               	xorwf	_controlTransferState,w,c	;volatile
  7907  001A8A  A4D8               	btfss	status,2,c
  7908  001A8C  D016               	goto	i2l2738
  7909                           
  7910                           ;usb_device.c: 1433: {
  7911                           ;usb_device.c: 1434: pBDTEntryIn[0]->CNT = 0;
  7912  001A8E  0100               	movlb	0	; () banked
  7913  001A90  EE20 F001          	lfsr	2,1
  7914  001A94  5168               	movf	_pBDTEntryIn& (0+255),w,b
  7915  001A96  26D9               	addwf	fsr2l,f,c
  7916  001A98  5169               	movf	(_pBDTEntryIn+1)& (0+255),w,b
  7917  001A9A  22DA               	addwfc	fsr2h,f,c
  7918  001A9C  0E00               	movlw	0
  7919  001A9E  6EDF               	movwf	indf2,c
  7920                           
  7921                           ; BSR set to: 0
  7922                           ;usb_device.c: 1435: pBDTEntryIn[0]->STAT.Val = 0x40|(0x08 & 0x08);
  7923  001AA0  C068  FFD9         	movff	_pBDTEntryIn,fsr2l
  7924  001AA4  C069  FFDA         	movff	_pBDTEntryIn+1,fsr2h
  7925  001AA8  0E48               	movlw	72
  7926  001AAA  6EDF               	movwf	indf2,c
  7927                           
  7928                           ; BSR set to: 0
  7929                           ;usb_device.c: 1436: pBDTEntryIn[0]->STAT.Val |= 0x80;
  7930  001AAC  C068  FFD9         	movff	_pBDTEntryIn,fsr2l
  7931  001AB0  C069  FFDA         	movff	_pBDTEntryIn+1,fsr2h
  7932  001AB4  0E00               	movlw	0
  7933  001AB6  8EDB               	bsf	plusw2,7,c
  7934                           
  7935                           ;usb_device.c: 1437: }
  7936  001AB8  D03E               	goto	i2l414
  7937  001ABA                     i2l2738:
  7938                           
  7939                           ;usb_device.c: 1438: else if(controlTransferState == 1)
  7940  001ABA  0443               	decf	_controlTransferState,w,c	;volatile
  7941  001ABC  A4D8               	btfss	status,2,c
  7942  001ABE  D03B               	goto	i2l414
  7943                           
  7944                           ;usb_device.c: 1439: {
  7945                           ;usb_device.c: 1440: BothEP0OutUOWNsSet = 0;
  7946  001AC0  0E00               	movlw	0
  7947  001AC2  6E3A               	movwf	_BothEP0OutUOWNsSet,c	;volatile
  7948                           
  7949                           ;usb_device.c: 1445: pBDTEntryEP0OutCurrent->CNT = 8;
  7950  001AC4  EE20 F001          	lfsr	2,1
  7951  001AC8  5034               	movf	_pBDTEntryEP0OutCurrent,w,c
  7952  001ACA  26D9               	addwf	fsr2l,f,c
  7953  001ACC  5035               	movf	_pBDTEntryEP0OutCurrent+1,w,c
  7954  001ACE  22DA               	addwfc	fsr2h,f,c
  7955  001AD0  0E08               	movlw	8
  7956  001AD2  6EDF               	movwf	indf2,c
  7957                           
  7958                           ;usb_device.c: 1446: pBDTEntryEP0OutCurrent->ADR = ((uint16_t)(&SetupPkt));
  7959  001AD4  EE20 F002          	lfsr	2,2
  7960  001AD8  5034               	movf	_pBDTEntryEP0OutCurrent,w,c
  7961  001ADA  26D9               	addwf	fsr2l,f,c
  7962  001ADC  5035               	movf	_pBDTEntryEP0OutCurrent+1,w,c
  7963  001ADE  22DA               	addwfc	fsr2h,f,c
  7964  001AE0  0E20               	movlw	32
  7965  001AE2  6EDE               	movwf	postinc2,c
  7966  001AE4  0E04               	movlw	4
  7967  001AE6  6EDD               	movwf	postdec2,c
  7968                           
  7969                           ;usb_device.c: 1447: pBDTEntryEP0OutCurrent->STAT.Val = 0x04;
  7970  001AE8  C034  FFD9         	movff	_pBDTEntryEP0OutCurrent,fsr2l
  7971  001AEC  C035  FFDA         	movff	_pBDTEntryEP0OutCurrent+1,fsr2h
  7972  001AF0  0E04               	movlw	4
  7973  001AF2  6EDF               	movwf	indf2,c
  7974                           
  7975                           ;usb_device.c: 1448: pBDTEntryEP0OutCurrent->STAT.Val |= 0x80;
  7976  001AF4  C034  FFD9         	movff	_pBDTEntryEP0OutCurrent,fsr2l
  7977  001AF8  C035  FFDA         	movff	_pBDTEntryEP0OutCurrent+1,fsr2h
  7978  001AFC  0E00               	movlw	0
  7979  001AFE  8EDB               	bsf	plusw2,7,c
  7980                           
  7981                           ;usb_device.c: 1449: BothEP0OutUOWNsSet = 1;
  7982  001B00  0E01               	movlw	1
  7983  001B02  6E3A               	movwf	_BothEP0OutUOWNsSet,c	;volatile
  7984                           
  7985                           ;usb_device.c: 1453: pBDTEntryEP0OutNext->CNT = 8;
  7986  001B04  EE20 F001          	lfsr	2,1
  7987  001B08  5036               	movf	_pBDTEntryEP0OutNext,w,c
  7988  001B0A  26D9               	addwf	fsr2l,f,c
  7989  001B0C  5037               	movf	_pBDTEntryEP0OutNext+1,w,c
  7990  001B0E  22DA               	addwfc	fsr2h,f,c
  7991  001B10  0E08               	movlw	8
  7992  001B12  6EDF               	movwf	indf2,c
  7993                           
  7994                           ;usb_device.c: 1454: pBDTEntryEP0OutNext->ADR = ((uint16_t)(&SetupPkt));
  7995  001B14  EE20 F002          	lfsr	2,2
  7996  001B18  5036               	movf	_pBDTEntryEP0OutNext,w,c
  7997  001B1A  26D9               	addwf	fsr2l,f,c
  7998  001B1C  5037               	movf	_pBDTEntryEP0OutNext+1,w,c
  7999  001B1E  22DA               	addwfc	fsr2h,f,c
  8000  001B20  0E20               	movlw	32
  8001  001B22  6EDE               	movwf	postinc2,c
  8002  001B24  0E04               	movlw	4
  8003  001B26  6EDD               	movwf	postdec2,c
  8004                           
  8005                           ;usb_device.c: 1455: pBDTEntryEP0OutNext->STAT.Val = 0x80;
  8006  001B28  C036  FFD9         	movff	_pBDTEntryEP0OutNext,fsr2l
  8007  001B2C  C037  FFDA         	movff	_pBDTEntryEP0OutNext+1,fsr2h
  8008  001B30  0E80               	movlw	128
  8009  001B32  6EDF               	movwf	indf2,c
  8010  001B34  D000               	goto	i2l414
  8011  001B36                     i2l414:
  8012  001B36  0012               	return		;funcret
  8013  001B38                     __end_of_USBCtrlEPAllowStatusStage:
  8014                           	opt stack 0
  8015                           pclatu	equ	0xFFB
  8016                           pclath	equ	0xFFA
  8017                           tblptru	equ	0xFF8
  8018                           tblptrh	equ	0xFF7
  8019                           tblptrl	equ	0xFF6
  8020                           tablat	equ	0xFF5
  8021                           prodh	equ	0xFF4
  8022                           prodl	equ	0xFF3
  8023                           intcon	equ	0xFF2
  8024                           postinc0	equ	0xFEE
  8025                           fsr0h	equ	0xFEA
  8026                           fsr0l	equ	0xFE9
  8027                           wreg	equ	0xFE8
  8028                           indf1	equ	0xFE7
  8029                           fsr1h	equ	0xFE2
  8030                           fsr1l	equ	0xFE1
  8031                           bsr	equ	0xFE0
  8032                           indf2	equ	0xFDF
  8033                           postinc2	equ	0xFDE
  8034                           postdec2	equ	0xFDD
  8035                           plusw2	equ	0xFDB
  8036                           fsr2h	equ	0xFDA
  8037                           fsr2l	equ	0xFD9
  8038                           status	equ	0xFD8
  8039                           
  8040 ;; *************** function _USBCtrlTrfInHandler *****************
  8041 ;; Defined at:
  8042 ;;		line 2595 in file "../src/usb/src/usb_device.c"
  8043 ;; Parameters:    Size  Location     Type
  8044 ;;		None
  8045 ;; Auto vars:     Size  Location     Type
  8046 ;;  lastDTS         1   18[COMRAM] unsigned char 
  8047 ;; Return value:  Size  Location     Type
  8048 ;;		None               void
  8049 ;; Registers used:
  8050 ;;		wreg, fsr1l, fsr1h, fsr2l, fsr2h, status,2, status,0, tblptrl, tblptrh, tblptru, cstack
  8051 ;; Tracked objects:
  8052 ;;		On entry : 0/0
  8053 ;;		On exit  : 0/0
  8054 ;;		Unchanged: 0/0
  8055 ;; Data sizes:     COMRAM   BANK0   BANK1   BANK2   BANK3   BANK4   BANK5   BANK6   BANK7
  8056 ;;      Params:         0       0       0       0       0       0       0       0       0
  8057 ;;      Locals:         1       0       0       0       0       0       0       0       0
  8058 ;;      Temps:          0       0       0       0       0       0       0       0       0
  8059 ;;      Totals:         1       0       0       0       0       0       0       0       0
  8060 ;;Total ram usage:        1 bytes
  8061 ;; Hardware stack levels used:    1
  8062 ;; Hardware stack levels required when called:    1
  8063 ;; This function calls:
  8064 ;;		_USBCtrlTrfTxService
  8065 ;; This function is called by:
  8066 ;;		_USBCtrlEPService
  8067 ;; This function uses a non-reentrant model
  8068 ;;
  8069                           
  8070                           	psect	text41
  8071  001BF8                     __ptext41:
  8072                           	opt stack 0
  8073  001BF8                     _USBCtrlTrfInHandler:
  8074                           	opt stack 22
  8075                           
  8076                           ;usb_device.c: 2597: uint8_t lastDTS;
  8077                           ;usb_device.c: 2599: lastDTS = pBDTEntryIn[0]->STAT.DTS;
  8078                           
  8079                           ;incstack = 0
  8080  001BF8  C068  FFD9         	movff	_pBDTEntryIn,fsr2l
  8081  001BFC  C069  FFDA         	movff	_pBDTEntryIn+1,fsr2h
  8082  001C00  0E00               	movlw	0
  8083  001C02  BCDF               	btfsc	indf2,6,c
  8084  001C04  0E01               	movlw	1
  8085  001C06  6E13               	movwf	USBCtrlTrfInHandler@lastDTS,c
  8086                           
  8087                           ;usb_device.c: 2602: ((uint8_t_VAL*)&pBDTEntryIn[0])->Val ^= 0x0004;
  8088  001C08  0E04               	movlw	4
  8089  001C0A  0100               	movlb	0	; () banked
  8090  001C0C  1B68               	xorwf	_pBDTEntryIn& (0+255),f,b
  8091                           
  8092                           ; BSR set to: 0
  8093                           ;usb_device.c: 2607: if(USBDeviceState == ADR_PENDING_STATE)
  8094  001C0E  0E08               	movlw	8
  8095  001C10  0100               	movlb	0	; () banked
  8096  001C12  1978               	xorwf	_USBDeviceState& (0+255),w,b	;volatile
  8097  001C14  A4D8               	btfss	status,2,c
  8098  001C16  D00D               	goto	i2l3160
  8099                           
  8100                           ; BSR set to: 0
  8101                           ;usb_device.c: 2608: {
  8102                           ;usb_device.c: 2609: UADDR = (SetupPkt.bDevADR & 0x7F);
  8103  001C18  0104               	movlb	4	; () banked
  8104  001C1A  5122               	movf	34,w,b	;volatile
  8105  001C1C  0B7F               	andlw	127
  8106  001C1E  6E6E               	movwf	3950,c	;volatile
  8107                           
  8108                           ; BSR set to: 4
  8109                           ;usb_device.c: 2610: if(UADDR != 0u)
  8110  001C20  506E               	movf	3950,w,c	;volatile
  8111  001C22  B4D8               	btfsc	status,2,c
  8112  001C24  D002               	goto	i2l3158
  8113                           
  8114                           ; BSR set to: 4
  8115                           ;usb_device.c: 2611: {
  8116                           ;usb_device.c: 2612: USBDeviceState=ADDRESS_STATE;
  8117  001C26  0E10               	movlw	16
  8118  001C28  D001               	goto	L19
  8119  001C2A                     i2l3158:
  8120                           
  8121                           ;usb_device.c: 2614: else
  8122                           ;usb_device.c: 2615: {
  8123                           ;usb_device.c: 2616: USBDeviceState=DEFAULT_STATE;
  8124  001C2A  0E04               	movlw	4
  8125  001C2C                     L19:
  8126  001C2C  0100               	movlb	0	; () banked
  8127  001C2E  6F78               	movwf	_USBDeviceState& (0+255),b	;volatile
  8128                           
  8129                           ; BSR set to: 0
  8130  001C30  D000               	goto	i2l3160
  8131  001C32                     i2l3160:
  8132                           
  8133                           ; BSR set to: 0
  8134                           ;usb_device.c: 2617: }
  8135                           ;usb_device.c: 2618: }
  8136                           ;usb_device.c: 2621: if(controlTransferState == 1)
  8137  001C32  0443               	decf	_controlTransferState,w,c	;volatile
  8138  001C34  A4D8               	btfss	status,2,c
  8139  001C36  D030               	goto	i2l541
  8140                           
  8141                           ; BSR set to: 0
  8142                           ;usb_device.c: 2622: {
  8143                           ;usb_device.c: 2623: pBDTEntryIn[0]->ADR = ((uint16_t)(CtrlTrfData));
  8144  001C38  0100               	movlb	0	; () banked
  8145  001C3A  EE20 F002          	lfsr	2,2
  8146  001C3E  5168               	movf	_pBDTEntryIn& (0+255),w,b
  8147  001C40  26D9               	addwf	fsr2l,f,c
  8148  001C42  5169               	movf	(_pBDTEntryIn+1)& (0+255),w,b
  8149  001C44  22DA               	addwfc	fsr2h,f,c
  8150  001C46  0E28               	movlw	40
  8151  001C48  6EDE               	movwf	postinc2,c
  8152  001C4A  0E04               	movlw	4
  8153  001C4C  6EDD               	movwf	postdec2,c
  8154                           
  8155                           ; BSR set to: 0
  8156                           ;usb_device.c: 2624: USBCtrlTrfTxService();
  8157  001C4E  EC8D  F00B         	call	_USBCtrlTrfTxService	;wreg free
  8158                           
  8159                           ;usb_device.c: 2630: if(shortPacketStatus == 2)
  8160  001C52  0E02               	movlw	2
  8161  001C54  1845               	xorwf	_shortPacketStatus,w,c	;volatile
  8162  001C56  A4D8               	btfss	status,2,c
  8163  001C58  D00D               	goto	i2l3172
  8164                           
  8165                           ;usb_device.c: 2631: {
  8166                           ;usb_device.c: 2634: pBDTEntryIn[0]->STAT.Val = 0x04;
  8167  001C5A  C068  FFD9         	movff	_pBDTEntryIn,fsr2l
  8168  001C5E  C069  FFDA         	movff	_pBDTEntryIn+1,fsr2h
  8169  001C62  0E04               	movlw	4
  8170  001C64  D016               	goto	L21
  8171  001C66                     i2l3170:
  8172                           
  8173                           ;usb_device.c: 2635: pBDTEntryIn[0]->STAT.Val |= 0x80;
  8174  001C66  C068  FFD9         	movff	_pBDTEntryIn,fsr2l
  8175  001C6A  C069  FFDA         	movff	_pBDTEntryIn+1,fsr2h
  8176  001C6E  0E00               	movlw	0
  8177  001C70  8EDB               	bsf	plusw2,7,c
  8178                           
  8179                           ;usb_device.c: 2636: }
  8180  001C72  D01B               	goto	i2l549
  8181  001C74                     i2l3172:
  8182                           
  8183                           ;usb_device.c: 2637: else
  8184                           ;usb_device.c: 2638: {
  8185                           ;usb_device.c: 2639: if(lastDTS == 0)
  8186  001C74  5013               	movf	USBCtrlTrfInHandler@lastDTS,w,c
  8187  001C76  A4D8               	btfss	status,2,c
  8188  001C78  D007               	goto	i2l3178
  8189                           
  8190                           ;usb_device.c: 2640: {
  8191                           ;usb_device.c: 2641: pBDTEntryIn[0]->STAT.Val = 0x40|(0x08 & 0x08);
  8192  001C7A  C068  FFD9         	movff	_pBDTEntryIn,fsr2l
  8193  001C7E  C069  FFDA         	movff	_pBDTEntryIn+1,fsr2h
  8194  001C82  0E48               	movlw	72
  8195  001C84  D006               	goto	L21
  8196  001C86  D7EF               	goto	i2l3170
  8197  001C88                     i2l3178:
  8198                           
  8199                           ;usb_device.c: 2644: else
  8200                           ;usb_device.c: 2645: {
  8201                           ;usb_device.c: 2646: pBDTEntryIn[0]->STAT.Val = 0x00|(0x08 & 0x08);
  8202  001C88  C068  FFD9         	movff	_pBDTEntryIn,fsr2l
  8203  001C8C  C069  FFDA         	movff	_pBDTEntryIn+1,fsr2h
  8204  001C90  0E08               	movlw	8
  8205  001C92                     L21:
  8206  001C92  6EDF               	movwf	indf2,c
  8207  001C94  D7E8               	goto	i2l3170
  8208                           
  8209                           ;usb_device.c: 2648: }
  8210                           ;usb_device.c: 2649: }
  8211                           ;usb_device.c: 2650: }
  8212                           
  8213                           ;usb_device.c: 2647: pBDTEntryIn[0]->STAT.Val |= 0x80;
  8214  001C96  D009               	goto	i2l549
  8215  001C98                     i2l541:
  8216                           
  8217                           ; BSR set to: 0
  8218                           ;usb_device.c: 2651: else
  8219                           ;usb_device.c: 2652: {
  8220                           ;usb_device.c: 2656: if(outPipes[0].info.bits.busy == 1)
  8221  001C98  0100               	movlb	0	; () banked
  8222  001C9A  AF63               	btfss	(_outPipes+3)& (0+255),7,b	;volatile
  8223  001C9C  D003               	goto	i2l3184
  8224                           
  8225                           ; BSR set to: 0
  8226                           ;usb_device.c: 2661: }
  8227                           ;usb_device.c: 2662: outPipes[0].info.bits.busy = 0;
  8228                           
  8229                           ; BSR set to: 0
  8230                           ;usb_device.c: 2659: {
  8231                           ;usb_device.c: 2660: outPipes[0].pFunc();
  8232  001C9E  0100               	movlb	0	; () banked
  8233  001CA0  9F63               	bcf	(_outPipes+3)& (0+255),7,b	;volatile
  8234  001CA2  D000               	goto	i2l3184
  8235  001CA4                     i2l3184:
  8236                           
  8237                           ; BSR set to: 0
  8238                           ;usb_device.c: 2663: }
  8239                           ;usb_device.c: 2665: controlTransferState = 0;
  8240  001CA4  0E00               	movlw	0
  8241  001CA6  6E43               	movwf	_controlTransferState,c	;volatile
  8242  001CA8  D000               	goto	i2l549
  8243  001CAA                     i2l549:
  8244  001CAA  0012               	return		;funcret
  8245  001CAC                     __end_of_USBCtrlTrfInHandler:
  8246                           	opt stack 0
  8247                           pclatu	equ	0xFFB
  8248                           pclath	equ	0xFFA
  8249                           tblptru	equ	0xFF8
  8250                           tblptrh	equ	0xFF7
  8251                           tblptrl	equ	0xFF6
  8252                           tablat	equ	0xFF5
  8253                           prodh	equ	0xFF4
  8254                           prodl	equ	0xFF3
  8255                           intcon	equ	0xFF2
  8256                           postinc0	equ	0xFEE
  8257                           fsr0h	equ	0xFEA
  8258                           fsr0l	equ	0xFE9
  8259                           wreg	equ	0xFE8
  8260                           indf1	equ	0xFE7
  8261                           fsr1h	equ	0xFE2
  8262                           fsr1l	equ	0xFE1
  8263                           bsr	equ	0xFE0
  8264                           indf2	equ	0xFDF
  8265                           postinc2	equ	0xFDE
  8266                           postdec2	equ	0xFDD
  8267                           plusw2	equ	0xFDB
  8268                           fsr2h	equ	0xFDA
  8269                           fsr2l	equ	0xFD9
  8270                           status	equ	0xFD8
  8271                           
  8272 ;; *************** function _USBCtrlTrfTxService *****************
  8273 ;; Defined at:
  8274 ;;		line 1771 in file "../src/usb/src/usb_device.c"
  8275 ;; Parameters:    Size  Location     Type
  8276 ;;		None
  8277 ;; Auto vars:     Size  Location     Type
  8278 ;;  byteToSend      1   17[COMRAM] unsigned char 
  8279 ;; Return value:  Size  Location     Type
  8280 ;;		None               void
  8281 ;; Registers used:
  8282 ;;		wreg, fsr1l, fsr1h, fsr2l, fsr2h, status,2, status,0, tblptrl, tblptrh, tblptru
  8283 ;; Tracked objects:
  8284 ;;		On entry : 0/0
  8285 ;;		On exit  : 0/0
  8286 ;;		Unchanged: 0/0
  8287 ;; Data sizes:     COMRAM   BANK0   BANK1   BANK2   BANK3   BANK4   BANK5   BANK6   BANK7
  8288 ;;      Params:         0       0       0       0       0       0       0       0       0
  8289 ;;      Locals:         1       0       0       0       0       0       0       0       0
  8290 ;;      Temps:          0       0       0       0       0       0       0       0       0
  8291 ;;      Totals:         1       0       0       0       0       0       0       0       0
  8292 ;;Total ram usage:        1 bytes
  8293 ;; Hardware stack levels used:    1
  8294 ;; This function calls:
  8295 ;;		Nothing
  8296 ;; This function is called by:
  8297 ;;		_USBCtrlEPAllowDataStage
  8298 ;;		_USBCtrlTrfInHandler
  8299 ;; This function uses a non-reentrant model
  8300 ;;
  8301                           
  8302                           	psect	text42
  8303  00171A                     __ptext42:
  8304                           	opt stack 0
  8305  00171A                     _USBCtrlTrfTxService:
  8306                           	opt stack 20
  8307                           
  8308                           ;usb_device.c: 1773: uint8_t byteToSend;
  8309                           ;usb_device.c: 1777: byteToSend = 8;
  8310                           
  8311                           ;incstack = 0
  8312  00171A  0E08               	movlw	8
  8313  00171C  6E12               	movwf	USBCtrlTrfTxService@byteToSend,c
  8314                           
  8315                           ;usb_device.c: 1778: if(inPipes[0].wCount.Val < (uint8_t)8)
  8316  00171E  0100               	movlb	0	; () banked
  8317  001720  517F               	movf	(_inPipes+5)& (0+255),w,b	;volatile
  8318  001722  E112               	bnz	i2l2686
  8319  001724  0E08               	movlw	8
  8320  001726  0100               	movlb	0	; () banked
  8321  001728  5D7E               	subwf	(_inPipes+4)& (0+255),w,b	;volatile
  8322  00172A  B0D8               	btfsc	status,0,c
  8323  00172C  D00D               	goto	i2l2686
  8324                           
  8325                           ; BSR set to: 0
  8326                           ;usb_device.c: 1779: {
  8327                           ;usb_device.c: 1780: byteToSend = inPipes[0].wCount.Val;
  8328  00172E  C07E  F012         	movff	_inPipes+4,USBCtrlTrfTxService@byteToSend	;volatile
  8329                           
  8330                           ; BSR set to: 0
  8331                           ;usb_device.c: 1787: if(shortPacketStatus == 0)
  8332  001732  5045               	movf	_shortPacketStatus,w,c	;volatile
  8333  001734  A4D8               	btfss	status,2,c
  8334  001736  D002               	goto	i2l2682
  8335                           
  8336                           ; BSR set to: 0
  8337                           ;usb_device.c: 1788: {
  8338                           ;usb_device.c: 1789: shortPacketStatus = 1;
  8339  001738  0E01               	movlw	1
  8340  00173A  D004               	goto	L22
  8341  00173C                     i2l2682:
  8342                           
  8343                           ; BSR set to: 0
  8344                           ;usb_device.c: 1791: else if(shortPacketStatus == 1)
  8345  00173C  0445               	decf	_shortPacketStatus,w,c	;volatile
  8346  00173E  A4D8               	btfss	status,2,c
  8347  001740  D003               	goto	i2l2686
  8348                           
  8349                           ; BSR set to: 0
  8350                           ;usb_device.c: 1792: {
  8351                           ;usb_device.c: 1793: shortPacketStatus = 2;
  8352  001742  0E02               	movlw	2
  8353  001744                     L22:
  8354  001744  6E45               	movwf	_shortPacketStatus,c	;volatile
  8355                           
  8356                           ; BSR set to: 0
  8357                           
  8358                           ; BSR set to: 0
  8359  001746  D000               	goto	i2l2686
  8360  001748                     i2l2686:
  8361                           
  8362                           ; BSR set to: 0
  8363                           ;usb_device.c: 1794: }
  8364                           ;usb_device.c: 1795: }
  8365                           ;usb_device.c: 1799: inPipes[0].wCount.Val -= byteToSend;
  8366  001748  5012               	movf	USBCtrlTrfTxService@byteToSend,w,c
  8367  00174A  0100               	movlb	0	; () banked
  8368  00174C  5F7E               	subwf	(_inPipes+4)& (0+255),f,b	;volatile
  8369  00174E  0E00               	movlw	0
  8370  001750  5B7F               	subwfb	(_inPipes+5)& (0+255),f,b	;volatile
  8371                           
  8372                           ; BSR set to: 0
  8373                           ;usb_device.c: 1804: pBDTEntryIn[0]->CNT = byteToSend;
  8374  001752  0100               	movlb	0	; () banked
  8375  001754  EE20 F001          	lfsr	2,1
  8376  001758  5168               	movf	_pBDTEntryIn& (0+255),w,b
  8377  00175A  26D9               	addwf	fsr2l,f,c
  8378  00175C  5169               	movf	(_pBDTEntryIn+1)& (0+255),w,b
  8379  00175E  22DA               	addwfc	fsr2h,f,c
  8380  001760  C012  FFDF         	movff	USBCtrlTrfTxService@byteToSend,indf2
  8381                           
  8382                           ; BSR set to: 0
  8383                           ;usb_device.c: 1808: pDst = (volatile uint8_t*)CtrlTrfData;
  8384  001764  0E28               	movlw	40
  8385  001766  6E38               	movwf	_pDst,c
  8386  001768  0E04               	movlw	4
  8387  00176A  6E39               	movwf	_pDst+1,c
  8388                           
  8389                           ; BSR set to: 0
  8390                           ;usb_device.c: 1809: if(inPipes[0].info.bits.ctrl_trf_mem == 0x00)
  8391  00176C  0100               	movlb	0	; () banked
  8392  00176E  A17D               	btfss	(_inPipes+3)& (0+255),0,b	;volatile
  8393  001770  D01E               	goto	i2l2704
  8394  001772  D03F               	goto	i2l2714
  8395                           
  8396                           ; BSR set to: 0
  8397                           ;usb_device.c: 1810: {
  8398                           ;usb_device.c: 1811: while(byteToSend)
  8399  001774  D01C               	goto	i2l2704
  8400  001776                     i2l2696:
  8401                           
  8402                           ; BSR set to: 0
  8403                           ;usb_device.c: 1812: {
  8404                           ;usb_device.c: 1813: *pDst++ = *inPipes[0].pSrc.bRom++;
  8405  001776  C07A  FFF6         	movff	_inPipes,tblptrl	;volatile
  8406  00177A  C07B  FFF7         	movff	_inPipes+1,tblptrh	;volatile
  8407  00177E  6AF8               	clrf	tblptru,c
  8408  001780  C038  FFD9         	movff	_pDst,fsr2l
  8409  001784  C039  FFDA         	movff	_pDst+1,fsr2h
  8410  001788  0E07               	movlw	(high __ramtop+-1)
  8411  00178A  64F7               	cpfsgt	tblptrh,c
  8412  00178C  D003               	bra	i2u172_47
  8413  00178E  0008               	tblrd		*
  8414  001790  50F5               	movf	tablat,w,c
  8415  001792  D005               	bra	i2u172_40
  8416  001794                     i2u172_47:
  8417  001794  CFF6 FFE1          	movff	tblptrl,fsr1l
  8418  001798  CFF7 FFE2          	movff	tblptrh,fsr1h
  8419  00179C  50E7               	movf	indf1,w,c
  8420  00179E                     i2u172_40:
  8421  00179E  6EDF               	movwf	indf2,c
  8422  0017A0  0100               	movlb	0	; () banked
  8423  0017A2  4B7A               	infsnz	_inPipes& (0+255),f,b	;volatile
  8424  0017A4  2B7B               	incf	(_inPipes+1)& (0+255),f,b	;volatile
  8425                           
  8426                           ; BSR set to: 0
  8427  0017A6  4A38               	infsnz	_pDst,f,c
  8428  0017A8  2A39               	incf	_pDst+1,f,c
  8429                           
  8430                           ; BSR set to: 0
  8431                           ;usb_device.c: 1814: byteToSend--;
  8432  0017AA  0612               	decf	USBCtrlTrfTxService@byteToSend,f,c
  8433  0017AC  D000               	goto	i2l2704
  8434  0017AE                     i2l2704:
  8435                           
  8436                           ; BSR set to: 0
  8437  0017AE  5012               	movf	USBCtrlTrfTxService@byteToSend,w,c
  8438  0017B0  B4D8               	btfsc	status,2,c
  8439  0017B2  D024               	goto	i2l453
  8440  0017B4  D7E0               	goto	i2l2696
  8441                           
  8442                           ; BSR set to: 0
  8443                           ;usb_device.c: 1815: }
  8444                           ;usb_device.c: 1816: }
  8445  0017B6  D022               	goto	i2l453
  8446                           
  8447                           ; BSR set to: 0
  8448                           ;usb_device.c: 1817: else
  8449                           ;usb_device.c: 1818: {
  8450                           ;usb_device.c: 1819: while(byteToSend)
  8451  0017B8  D01C               	goto	i2l2714
  8452  0017BA                     i2l2706:
  8453                           
  8454                           ; BSR set to: 0
  8455                           ;usb_device.c: 1820: {
  8456                           ;usb_device.c: 1821: *pDst++ = *inPipes[0].pSrc.bRam++;
  8457  0017BA  C07A  FFF6         	movff	_inPipes,tblptrl	;volatile
  8458  0017BE  C07B  FFF7         	movff	_inPipes+1,tblptrh	;volatile
  8459  0017C2  6AF8               	clrf	tblptru,c
  8460  0017C4  C038  FFD9         	movff	_pDst,fsr2l
  8461  0017C8  C039  FFDA         	movff	_pDst+1,fsr2h
  8462  0017CC  0E07               	movlw	(high __ramtop+-1)
  8463  0017CE  64F7               	cpfsgt	tblptrh,c
  8464  0017D0  D003               	bra	i2u174_47
  8465  0017D2  0008               	tblrd		*
  8466  0017D4  50F5               	movf	tablat,w,c
  8467  0017D6  D005               	bra	i2u174_40
  8468  0017D8                     i2u174_47:
  8469  0017D8  CFF6 FFE1          	movff	tblptrl,fsr1l
  8470  0017DC  CFF7 FFE2          	movff	tblptrh,fsr1h
  8471  0017E0  50E7               	movf	indf1,w,c
  8472  0017E2                     i2u174_40:
  8473  0017E2  6EDF               	movwf	indf2,c
  8474  0017E4  0100               	movlb	0	; () banked
  8475  0017E6  4B7A               	infsnz	_inPipes& (0+255),f,b	;volatile
  8476  0017E8  2B7B               	incf	(_inPipes+1)& (0+255),f,b	;volatile
  8477                           
  8478                           ; BSR set to: 0
  8479  0017EA  4A38               	infsnz	_pDst,f,c
  8480  0017EC  2A39               	incf	_pDst+1,f,c
  8481                           
  8482                           ; BSR set to: 0
  8483                           ;usb_device.c: 1822: byteToSend--;
  8484  0017EE  0612               	decf	USBCtrlTrfTxService@byteToSend,f,c
  8485  0017F0  D000               	goto	i2l2714
  8486  0017F2                     i2l2714:
  8487                           
  8488                           ; BSR set to: 0
  8489  0017F2  5012               	movf	USBCtrlTrfTxService@byteToSend,w,c
  8490  0017F4  B4D8               	btfsc	status,2,c
  8491  0017F6  D002               	goto	i2l453
  8492  0017F8  D7E0               	goto	i2l2706
  8493                           
  8494                           ; BSR set to: 0
  8495  0017FA  D000               	goto	i2l453
  8496  0017FC                     i2l453:
  8497                           
  8498                           ; BSR set to: 0
  8499  0017FC  0012               	return		;funcret
  8500  0017FE                     __end_of_USBCtrlTrfTxService:
  8501                           	opt stack 0
  8502                           pclatu	equ	0xFFB
  8503                           pclath	equ	0xFFA
  8504                           tblptru	equ	0xFF8
  8505                           tblptrh	equ	0xFF7
  8506                           tblptrl	equ	0xFF6
  8507                           tablat	equ	0xFF5
  8508                           prodh	equ	0xFF4
  8509                           prodl	equ	0xFF3
  8510                           intcon	equ	0xFF2
  8511                           postinc0	equ	0xFEE
  8512                           fsr0h	equ	0xFEA
  8513                           fsr0l	equ	0xFE9
  8514                           wreg	equ	0xFE8
  8515                           indf1	equ	0xFE7
  8516                           fsr1h	equ	0xFE2
  8517                           fsr1l	equ	0xFE1
  8518                           bsr	equ	0xFE0
  8519                           indf2	equ	0xFDF
  8520                           postinc2	equ	0xFDE
  8521                           postdec2	equ	0xFDD
  8522                           plusw2	equ	0xFDB
  8523                           fsr2h	equ	0xFDA
  8524                           fsr2l	equ	0xFD9
  8525                           status	equ	0xFD8
  8526                           pclatu	equ	0xFFB
  8527                           pclath	equ	0xFFA
  8528                           tblptru	equ	0xFF8
  8529                           tblptrh	equ	0xFF7
  8530                           tblptrl	equ	0xFF6
  8531                           tablat	equ	0xFF5
  8532                           prodh	equ	0xFF4
  8533                           prodl	equ	0xFF3
  8534                           intcon	equ	0xFF2
  8535                           postinc0	equ	0xFEE
  8536                           fsr0h	equ	0xFEA
  8537                           fsr0l	equ	0xFE9
  8538                           wreg	equ	0xFE8
  8539                           indf1	equ	0xFE7
  8540                           fsr1h	equ	0xFE2
  8541                           fsr1l	equ	0xFE1
  8542                           bsr	equ	0xFE0
  8543                           indf2	equ	0xFDF
  8544                           postinc2	equ	0xFDE
  8545                           postdec2	equ	0xFDD
  8546                           plusw2	equ	0xFDB
  8547                           fsr2h	equ	0xFDA
  8548                           fsr2l	equ	0xFD9
  8549                           status	equ	0xFD8
  8550                           
  8551                           	psect	rparam
  8552  0000                     pclatu	equ	0xFFB
  8553                           pclath	equ	0xFFA
  8554                           tblptru	equ	0xFF8
  8555                           tblptrh	equ	0xFF7
  8556                           tblptrl	equ	0xFF6
  8557                           tablat	equ	0xFF5
  8558                           prodh	equ	0xFF4
  8559                           prodl	equ	0xFF3
  8560                           intcon	equ	0xFF2
  8561                           postinc0	equ	0xFEE
  8562                           fsr0h	equ	0xFEA
  8563                           fsr0l	equ	0xFE9
  8564                           wreg	equ	0xFE8
  8565                           indf1	equ	0xFE7
  8566                           fsr1h	equ	0xFE2
  8567                           fsr1l	equ	0xFE1
  8568                           bsr	equ	0xFE0
  8569                           indf2	equ	0xFDF
  8570                           postinc2	equ	0xFDE
  8571                           postdec2	equ	0xFDD
  8572                           plusw2	equ	0xFDB
  8573                           fsr2h	equ	0xFDA
  8574                           fsr2l	equ	0xFD9
  8575                           status	equ	0xFD8


Data Sizes:
    Strings     0
    Constant    228
    Data        0
    BSS         59
    Persistent  0
    Stack       0

Auto Spaces:
    Space          Size  Autos    Used
    COMRAM           95     47      74
    BANK0           160     27      59
    BANK1           256      0       0
    BANK2           256      0       0
    BANK3           256      0       0
    BANK4           208      0       0
    BANK5           128      0       0
    BANK6           256      0       0
    BANK7           256      0       0

Pointer List with Targets:

    USER_USB_CALLBACK_EVENT_HANDLER@pdata	PTR void  size(2) Largest target is 32
		 -> USTATcopy(COMRAM[1]), USBActiveConfiguration(COMRAM[1]), BDT(BIGRAMll[32]), NULL(NULL[0]), 

    memset@p1	PTR void  size(2) Largest target is 64
		 -> USBAlternateInterface(COMRAM[1]), BDT(BIGRAMll[32]), UEP1(SFR[1]), ToSendDataBuffer(BIGRAMh[64]), 

    memset@p	PTR unsigned char  size(2) Largest target is 64
		 -> USBAlternateInterface(COMRAM[1]), BDT(BIGRAMll[32]), UEP1(SFR[1]), ToSendDataBuffer(BIGRAMh[64]), 

    USBStdFeatureReqHandler@pUEP	PTR unsigned char  size(2) Largest target is 1
		 -> UEP0(SFR[1]), 

    USBStdFeatureReqHandler@p	PTR struct __BDT size(2) Largest target is 32
		 -> BDT(BIGRAMll[32]), NULL(NULL[0]), 

    USBStdGetStatusHandler@p	PTR struct __BDT size(2) Largest target is 32
		 -> BDT(BIGRAMll[32]), NULL(NULL[0]), 

    pDst	PTR volatile unsigned char  size(2) Largest target is 8
		 -> CtrlTrfData(BIGRAMlh[8]), NULL(NULL[0]), 

    USBConfigureEndpoint@handle	PTR volatile struct __BDT size(2) Largest target is 32
		 -> BDT(BIGRAMll[32]), 

    pBDTEntryEP0OutCurrent	PTR volatile struct __BDT size(2) Largest target is 32
		 -> BDT(BIGRAMll[32]), NULL(NULL[0]), 

    pBDTEntryEP0OutNext	PTR volatile struct __BDT size(2) Largest target is 32
		 -> BDT(BIGRAMll[32]), NULL(NULL[0]), 

    USBTransferOnePacket@data	PTR unsigned char  size(2) Largest target is 64
		 -> ToSendDataBuffer(BIGRAMh[64]), ReceivedDataBuffer(BIGRAMll[64]), 

    USBTransferOnePacket@handle	PTR volatile struct __BDT size(2) Largest target is 32
		 -> BDT(BIGRAMll[32]), NULL(NULL[0]), 

    USBEnableEndpoint@p	PTR unsigned char  size(2) Largest target is 1
		 -> UEP0(SFR[1]), 

    pBDTEntryOut	PTR volatile struct __BDT[2] size(2) Largest target is 32
		 -> BDT(BIGRAMll[32]), NULL(NULL[0]), 

    pBDTEntryIn	PTR volatile struct __BDT[2] size(2) Largest target is 32
		 -> BDT(BIGRAMll[32]), NULL(NULL[0]), 

    S756$pFunc	PTR FTN()void  size(2) Largest target is 0

    outPipes.pFunc	PTR FTN()void  size(2) Largest target is 0

    S746$wRam	PTR unsigned int  size(2) Largest target is 0

    outPipes.pDst.wRam	PTR unsigned int  size(2) Largest target is 0

    S746$bRam	PTR unsigned char  size(2) Largest target is 0

    outPipes.pDst.bRam	PTR unsigned char  size(2) Largest target is 0

    S722$wRom	PTR const unsigned int  size(2) Largest target is 0

    inPipes.pSrc.wRom	PTR const unsigned int  size(2) Largest target is 0

    S722$wRam	PTR unsigned int  size(2) Largest target is 0

    inPipes.pSrc.wRam	PTR unsigned int  size(2) Largest target is 0

    S722$bRom	PTR const unsigned char  size(2) Largest target is 0

    inPipes.pSrc.bRom	PTR const unsigned char  size(2) Largest target is 0

    S722$bRam	PTR unsigned char  size(2) Largest target is 0

    inPipes.pSrc.bRam	PTR unsigned char  size(2) Largest target is 0

    USB_SD_Ptr	const PTR const unsigned char [3] size(2) Largest target is 72
		 -> sd002(CODE[72]), sd001(CODE[56]), sd000(CODE[4]), 

    USB_CD_Ptr	const PTR const unsigned char [1] size(2) Largest target is 41
		 -> configDescriptor1(CODE[41]), 

    sp__memset	PTR void  size(2) Largest target is 64
		 -> USBAlternateInterface(COMRAM[1]), BDT(BIGRAMll[32]), UEP1(SFR[1]), ToSendDataBuffer(BIGRAMh[64]), 

    sp__USBTransferOnePacket	PTR void  size(2) Largest target is 32
		 -> BDT(BIGRAMll[32]), NULL(NULL[0]), 

    USBOutHandle	PTR volatile void  size(2) Largest target is 32
		 -> BDT(BIGRAMll[32]), NULL(NULL[0]), 

    USBInHandle	PTR volatile void  size(2) Largest target is 32
		 -> BDT(BIGRAMll[32]), NULL(NULL[0]), 


Critical Paths under _main in COMRAM

    None.

Critical Paths under _SYS_InterruptHigh in COMRAM

    _SYS_InterruptHigh->_USBDeviceTasks
    _USBDeviceTasks->_USBCtrlEPService
    i2_USBDeviceInit->i2_memset
    _USBWakeFromSuspend->_USER_USB_CALLBACK_EVENT_HANDLER
    _USBSuspend->_USER_USB_CALLBACK_EVENT_HANDLER
    _USBCtrlEPAllowDataStage->_USBCtrlTrfTxService
    _USBCheckStdRequest->_USBStdFeatureReqHandler
    _USBStdSetCfgHandler->_USER_USB_CALLBACK_EVENT_HANDLER
    _USBStdFeatureReqHandler->_USER_USB_CALLBACK_EVENT_HANDLER
    _APP_CustomHIDInitialize->_USBEnableEndpoint
    _USBEnableEndpoint->_USBConfigureEndpoint
    _USBCtrlTrfOutHandler->_USBCtrlTrfRxService
    _USBCtrlTrfInHandler->_USBCtrlTrfTxService

Critical Paths under _SYS_InterruptLow in COMRAM

    None.

Critical Paths under _main in BANK0

    _main->_APP_CustomHIDTasks
    _USBDeviceInit->_memset
    _initADC->_OpenADC
    _APP_CustomHIDTasks->_memset

Critical Paths under _SYS_InterruptHigh in BANK0

    None.

Critical Paths under _SYS_InterruptLow in BANK0

    None.

Critical Paths under _main in BANK1

    None.

Critical Paths under _SYS_InterruptHigh in BANK1

    None.

Critical Paths under _SYS_InterruptLow in BANK1

    None.

Critical Paths under _main in BANK2

    None.

Critical Paths under _SYS_InterruptHigh in BANK2

    None.

Critical Paths under _SYS_InterruptLow in BANK2

    None.

Critical Paths under _main in BANK3

    None.

Critical Paths under _SYS_InterruptHigh in BANK3

    None.

Critical Paths under _SYS_InterruptLow in BANK3

    None.

Critical Paths under _main in BANK4

    None.

Critical Paths under _SYS_InterruptHigh in BANK4

    None.

Critical Paths under _SYS_InterruptLow in BANK4

    None.

Critical Paths under _main in BANK5

    None.

Critical Paths under _SYS_InterruptHigh in BANK5

    None.

Critical Paths under _SYS_InterruptLow in BANK5

    None.

Critical Paths under _main in BANK6

    None.

Critical Paths under _SYS_InterruptHigh in BANK6

    None.

Critical Paths under _SYS_InterruptLow in BANK6

    None.

Critical Paths under _main in BANK7

    None.

Critical Paths under _SYS_InterruptHigh in BANK7

    None.

Critical Paths under _SYS_InterruptLow in BANK7

    None.

Call Graph Tables:

 ---------------------------------------------------------------------------------
 (Depth) Function   	        Calls       Base Space   Used Autos Params    Refs
 ---------------------------------------------------------------------------------
 (0) _main                                                 0     0      0    4053
                 _APP_CustomHIDTasks
                  _SYSTEM_Initialize
                    _USBDeviceAttach
                      _USBDeviceInit
 ---------------------------------------------------------------------------------
 (1) _USBDeviceInit                                        1     1      0    1399
                                             22 BANK0      1     1      0
                             _memset
 ---------------------------------------------------------------------------------
 (1) _USBDeviceAttach                                      0     0      0       0
 ---------------------------------------------------------------------------------
 (1) _SYSTEM_Initialize                                    1     1      0     354
                                             19 BANK0      1     1      0
                            _initADC
 ---------------------------------------------------------------------------------
 (2) _initADC                                              0     0      0     332
                            _OpenADC
 ---------------------------------------------------------------------------------
 (3) _OpenADC                                              5     3      2     332
                                             14 BANK0      5     3      2
 ---------------------------------------------------------------------------------
 (1) _APP_CustomHIDTasks                                   5     5      0    2300
                                             22 BANK0      5     5      0
                            _BusyADC
                         _ConvertADC
               _USBTransferOnePacket
                             _memset
 ---------------------------------------------------------------------------------
 (2) _memset                                               8     2      6    1197
                                             14 BANK0      8     2      6
 ---------------------------------------------------------------------------------
 (2) _USBTransferOnePacket                                 7     3      4    1055
                                             14 BANK0      7     3      4
 ---------------------------------------------------------------------------------
 (2) _ConvertADC                                           0     0      0       0
 ---------------------------------------------------------------------------------
 (2) _BusyADC                                              0     0      0       0
 ---------------------------------------------------------------------------------
 Estimated maximum stack depth 3
 ---------------------------------------------------------------------------------
 (Depth) Function   	        Calls       Base Space   Used Autos Params    Refs
 ---------------------------------------------------------------------------------
 (4) _SYS_InterruptLow                                    17    17      0       0
                                              0 COMRAM    17    17      0
 ---------------------------------------------------------------------------------
 Estimated maximum stack depth 4
 ---------------------------------------------------------------------------------
 (Depth) Function   	        Calls       Base Space   Used Autos Params    Refs
 ---------------------------------------------------------------------------------
 (5) _SYS_InterruptHigh                                   14    14      0   28194
                                              0 BANK0     14    14      0
                     _USBDeviceTasks
 ---------------------------------------------------------------------------------
 (6) _USBDeviceTasks                                       1     1      0   28194
                                             46 COMRAM     1     1      0
          _USBCtrlEPAllowStatusStage
                   _USBCtrlEPService
                    _USBStallHandler
                         _USBSuspend
                 _USBWakeFromSuspend
    _USER_USB_CALLBACK_EVENT_HANDLER
                    i2_USBDeviceInit
 ---------------------------------------------------------------------------------
 (7) i2_USBDeviceInit                                      1     1      0     610
                                             25 COMRAM     1     1      0
                           i2_memset
 ---------------------------------------------------------------------------------
 (7) _USBWakeFromSuspend                                   0     0      0    3746
    _USER_USB_CALLBACK_EVENT_HANDLER
 ---------------------------------------------------------------------------------
 (7) _USBSuspend                                           0     0      0    3746
    _USER_USB_CALLBACK_EVENT_HANDLER
 ---------------------------------------------------------------------------------
 (7) _USBStallHandler                                      1     1      0       0
                                             17 COMRAM     1     1      0
 ---------------------------------------------------------------------------------
 (7) _USBCtrlEPService                                     3     3      0   16300
                                             43 COMRAM     3     3      0
                _USBCtrlTrfInHandler
               _USBCtrlTrfOutHandler
             _USBCtrlTrfSetupHandler
 ---------------------------------------------------------------------------------
 (8) _USBCtrlTrfSetupHandler                               0     0      0   16003
                 _USBCheckStdRequest
           _USBCtrlEPServiceComplete
    _USER_USB_CALLBACK_EVENT_HANDLER
 ---------------------------------------------------------------------------------
 (9) _USBCtrlEPServiceComplete                             0     0      0      92
            _USBCtrlEPAllowDataStage
          _USBCtrlEPAllowStatusStage
 ---------------------------------------------------------------------------------
 (10) _USBCtrlEPAllowDataStage                             0     0      0      92
                _USBCtrlTrfTxService
 ---------------------------------------------------------------------------------
 (9) _USBCheckStdRequest                                   0     0      0   12165
            _USBStdFeatureReqHandler
                _USBStdGetDscHandler
             _USBStdGetStatusHandler
                _USBStdSetCfgHandler
    _USER_USB_CALLBACK_EVENT_HANDLER
 ---------------------------------------------------------------------------------
 (10) _USBStdSetCfgHandler                                 1     1      0    4244
                                             37 COMRAM     1     1      0
    _USER_USB_CALLBACK_EVENT_HANDLER
                           i2_memset
 ---------------------------------------------------------------------------------
 (8) i2_memset                                             8     2      6     408
                                             17 COMRAM     8     2      6
 ---------------------------------------------------------------------------------
 (10) _USBStdGetStatusHandler                              3     3      0      46
                                             17 COMRAM     3     3      0
 ---------------------------------------------------------------------------------
 (10) _USBStdGetDscHandler                                 2     2      0       0
                                             17 COMRAM     2     2      0
 ---------------------------------------------------------------------------------
 (10) _USBStdFeatureReqHandler                             6     6      0    4129
                                             37 COMRAM     6     6      0
    _USER_USB_CALLBACK_EVENT_HANDLER
 ---------------------------------------------------------------------------------
 (7) _USER_USB_CALLBACK_EVENT_HANDLER                      8     2      6    3746
                                             29 COMRAM     8     2      6
            _APP_CustomHIDInitialize
              _APP_USBCBErrorHandler
                   _APP_USBCBSuspend
           _APP_USBCBWakeFromSuspend
              _APP_USBCB_SOF_Handler
                 _USBCheckHIDRequest
 ---------------------------------------------------------------------------------
 (8) _USBCheckHIDRequest                                   0     0      0       0
 ---------------------------------------------------------------------------------
 (8) _APP_USBCB_SOF_Handler                                0     0      0       0
 ---------------------------------------------------------------------------------
 (8) _APP_USBCBWakeFromSuspend                             0     0      0       0
 ---------------------------------------------------------------------------------
 (8) _APP_USBCBSuspend                                     0     0      0       0
 ---------------------------------------------------------------------------------
 (8) _APP_USBCBErrorHandler                                0     0      0       0
 ---------------------------------------------------------------------------------
 (8) _APP_CustomHIDInitialize                              0     0      0    1054
                  _USBEnableEndpoint
             i2_USBTransferOnePacket
 ---------------------------------------------------------------------------------
 (9) i2_USBTransferOnePacket                               7     3      4     410
                                             17 COMRAM     7     3      4
 ---------------------------------------------------------------------------------
 (9) _USBEnableEndpoint                                    4     3      1     644
                                             25 COMRAM     4     3      1
               _USBConfigureEndpoint
 ---------------------------------------------------------------------------------
 (10) _USBConfigureEndpoint                                8     7      1     400
                                             17 COMRAM     8     7      1
 ---------------------------------------------------------------------------------
 (8) _USBCtrlTrfOutHandler                                 0     0      0     114
                _USBCtrlTrfRxService
 ---------------------------------------------------------------------------------
 (9) _USBCtrlTrfRxService                                  2     2      0     114
                                             17 COMRAM     2     2      0
          _USBCtrlEPAllowStatusStage
 ---------------------------------------------------------------------------------
 (10) _USBCtrlEPAllowStatusStage                           0     0      0       0
 ---------------------------------------------------------------------------------
 (8) _USBCtrlTrfInHandler                                  1     1      0     115
                                             18 COMRAM     1     1      0
                _USBCtrlTrfTxService
 ---------------------------------------------------------------------------------
 (11) _USBCtrlTrfTxService                                 1     1      0      92
                                             17 COMRAM     1     1      0
 ---------------------------------------------------------------------------------
 Estimated maximum stack depth 11
 ---------------------------------------------------------------------------------

 Call Graph Graphs:

 _main (ROOT)
   _APP_CustomHIDTasks
     _BusyADC
     _ConvertADC
     _USBTransferOnePacket
     _memset
   _SYSTEM_Initialize
     _initADC
       _OpenADC
   _USBDeviceAttach
   _USBDeviceInit
     _memset

 _SYS_InterruptLow (ROOT)

 _SYS_InterruptHigh (ROOT)
   _USBDeviceTasks
     _USBCtrlEPAllowStatusStage
     _USBCtrlEPService
       _USBCtrlTrfInHandler
         _USBCtrlTrfTxService
       _USBCtrlTrfOutHandler
         _USBCtrlTrfRxService
           _USBCtrlEPAllowStatusStage
       _USBCtrlTrfSetupHandler
         _USBCheckStdRequest
           _USBStdFeatureReqHandler
             _USER_USB_CALLBACK_EVENT_HANDLER
               _APP_CustomHIDInitialize
                 _USBEnableEndpoint
                   _USBConfigureEndpoint
                 i2_USBTransferOnePacket
               _APP_USBCBErrorHandler
               _APP_USBCBSuspend
               _APP_USBCBWakeFromSuspend
               _APP_USBCB_SOF_Handler
               _USBCheckHIDRequest
           _USBStdGetDscHandler
           _USBStdGetStatusHandler
           _USBStdSetCfgHandler
             _USER_USB_CALLBACK_EVENT_HANDLER
               _APP_CustomHIDInitialize
                 _USBEnableEndpoint
                   _USBConfigureEndpoint
                 i2_USBTransferOnePacket
               _APP_USBCBErrorHandler
               _APP_USBCBSuspend
               _APP_USBCBWakeFromSuspend
               _APP_USBCB_SOF_Handler
               _USBCheckHIDRequest
             i2_memset
           _USER_USB_CALLBACK_EVENT_HANDLER
             _APP_CustomHIDInitialize
               _USBEnableEndpoint
                 _USBConfigureEndpoint
               i2_USBTransferOnePacket
             _APP_USBCBErrorHandler
             _APP_USBCBSuspend
             _APP_USBCBWakeFromSuspend
             _APP_USBCB_SOF_Handler
             _USBCheckHIDRequest
         _USBCtrlEPServiceComplete
           _USBCtrlEPAllowDataStage
             _USBCtrlTrfTxService
           _USBCtrlEPAllowStatusStage
         _USER_USB_CALLBACK_EVENT_HANDLER
           _APP_CustomHIDInitialize
             _USBEnableEndpoint
               _USBConfigureEndpoint
             i2_USBTransferOnePacket
           _APP_USBCBErrorHandler
           _APP_USBCBSuspend
           _APP_USBCBWakeFromSuspend
           _APP_USBCB_SOF_Handler
           _USBCheckHIDRequest
     _USBStallHandler
     _USBSuspend
       _USER_USB_CALLBACK_EVENT_HANDLER
         _APP_CustomHIDInitialize
           _USBEnableEndpoint
             _USBConfigureEndpoint
           i2_USBTransferOnePacket
         _APP_USBCBErrorHandler
         _APP_USBCBSuspend
         _APP_USBCBWakeFromSuspend
         _APP_USBCB_SOF_Handler
         _USBCheckHIDRequest
     _USBWakeFromSuspend
       _USER_USB_CALLBACK_EVENT_HANDLER
         _APP_CustomHIDInitialize
           _USBEnableEndpoint
             _USBConfigureEndpoint
           i2_USBTransferOnePacket
         _APP_USBCBErrorHandler
         _APP_USBCBSuspend
         _APP_USBCBWakeFromSuspend
         _APP_USBCB_SOF_Handler
         _USBCheckHIDRequest
     _USER_USB_CALLBACK_EVENT_HANDLER
       _APP_CustomHIDInitialize
         _USBEnableEndpoint
           _USBConfigureEndpoint
         i2_USBTransferOnePacket
       _APP_USBCBErrorHandler
       _APP_USBCBSuspend
       _APP_USBCBWakeFromSuspend
       _APP_USBCB_SOF_Handler
       _USBCheckHIDRequest
     i2_USBDeviceInit
       i2_memset

 Address spaces:
Name               Size   Autos  Total    Cost      Usage
BIGRAMll           3FF      0       0      23        0.0%
BIGRAMh            280      0       0      21        0.0%
EEDATA             100      0       0       0        0.0%
BITBANK7           100      0       0      19        0.0%
BANK7              100      0       0      20        0.0%
BITBANK6           100      0       0      17        0.0%
BANK6              100      0       0      18        0.0%
BITBANK3           100      0       0      10        0.0%
BANK3              100      0       0      11        0.0%
BITBANK2           100      0       0       8        0.0%
BANK2              100      0       0       9        0.0%
BITBANK1           100      0       0       6        0.0%
BANK1              100      0       0       7        0.0%
BIGRAMlh            D0      0       0      22        0.0%
BITBANK4            D0      0       0      12        0.0%
BANK4               D0      0       0      13        0.0%
BITBANK0            A0      0       0       4        0.0%
BANK0               A0     1B      3B       5       36.9%
BITBANK5            80      0       0      14        0.0%
BANK5               80      0       0      15        0.0%
BITCOMRAM           5F      0       0       0        0.0%
COMRAM              5F     2F      4A       1       77.9%
BITSFR               0      0       0      40        0.0%
SFR                  0      0       0      40        0.0%
STACK                0      0       0       2        0.0%
NULL                 0      0       0       0        0.0%
ABS                  0      0      85      16        0.0%
DATA                 0      0      85       3        0.0%
CODE                 0      0       0       0        0.0%


Microchip Technology PIC18 Macro Assembler V1.34 build -361300703 
Symbol Table                                                                                   Sun Feb 05 10:20:14 2017

                              _USB_SD_Ptr 0801                                        l70 0D06  
                                      l57 0BEE                               __CFG_BOR$ON 000000  
                                      bsr 000FE0                             _USBDeviceInit 0D08  
                             __CFG_BORV$3 000000                        __CFG_FOSC$XTPLL_XT 000000  
                      _USBCheckHIDRequest 133A                              __CFG_CP0$OFF 000000  
                            __CFG_CP1$OFF 000000      USER_USB_CALLBACK_EVENT_HANDLER@event 001E  
    USER_USB_CALLBACK_EVENT_HANDLER@pdata 0020                                       l403 20E0  
                                     l147 2206                                       l404 20DE  
             __end_of_USBStdGetDscHandler 10EA                                       l406 20EC  
                                     l342 0D76                                       l194 218C  
                                     l384 18DA                                       l633 2282  
                                     l655 1F66                                       _BDT 000400  
                            __CFG_CPB$OFF 000000                                       _UIE 000F69  
                                     _UIR 000F68                                _USBSuspend 2218  
                    USBStdSetCfgHandler@i 0026                                       prod 000FF3  
                                     wreg 000FE8                            _USBDeviceTasks 0E60  
                     ?_USBCheckHIDRequest 0001                            _USBDeviceState 0078  
                   ??_USBCtrlTrfRxService 0012                  __size_ofi2_USBDeviceInit 013A  
                USBEnableEndpoint@options 001A                              __CFG_LVP$OFF 000000  
                       ?_APP_USBCBSuspend 0001                              __CFG_WDT$OFF 000000  
                                    l3200 1852                                      l3212 18B8  
                                    l3220 20F8                                      l3214 18D0  
                                    l3224 210C                                      l3400 0C5C  
                                    l3402 0C84                USBConfigureEndpoint@handle 0018  
                                    l3406 0CB6                                      l3192 181C  
                                    l3408 0CC2                                      l3194 1838  
                                    l3418 2160                                      l3434 2178  
                                    l3380 0BF2                                      l3382 0C08  
                                    l3374 0BB0                                      l3454 0D50  
                                    l3392 0C2E                                      l3376 0BBC  
                                    l3386 0C14                                      l3394 0C46  
                                    l3482 0DC4                                      l3466 0D82  
                                    l3474 0D9C                                      l3458 0D6E  
                                    l3388 0C26                                      l3478 0DBA  
                                    l3488 0E2A                                      l3692 220E  
                                    l3686 21FC                                      _LATB 000F8A  
                                    u2410 227E                                      u2600 0C02  
                                    u2640 0CA6                                      u2570 0BA0  
                                    u2590 0C00                                      u2648 0CAA  
                                    u2578 0BA4                     ??_USBCtrlTrfTxService 0012  
                                    _UCFG 000F6F                                      _UEP0 000F70  
                                    _UEP1 000F71                                      _UEIE 000F6B  
                                    _UEIR 000F6A                                      _UCON 000F6D  
                      ??_APP_USBCBSuspend 0012    USBStdFeatureReqHandler@current_ep_data 0029  
                                    _pDst 0038                                      _main 21EC  
                ??i2_USBTransferOnePacket 0016                                      fsr0h 000FEA  
                                    fsr1h 000FE2                                      fsr0l 000FE9  
                                    fsr2h 000FDA                                      indf1 000FE7  
                                    fsr1l 000FE1                                      indf2 000FDF  
                                    fsr2l 000FD9                           _USBDeviceAttach 20B8  
                                    pclat 000FFA                                      prodh 000FF4  
                                    prodl 000FF3                                      start 00A2  
                           __CFG_IESO$OFF 000000                      ??_USBCheckHIDRequest 0012  
              __end_of_USBCheckStdRequest 1636                    ??_USBCtrlTrfOutHandler 0014  
                           __CFG_MCLRE$ON 000000                              ___param_bank 000010  
                         __end_of_BusyADC 2284                 ??_USBStdFeatureReqHandler 0026  
                            _USBOutHandle 0072                           __end_of_OpenADC 1F6A  
                ??_USBStdGetStatusHandler 0012                    _APP_CustomHIDTasks$326 0097  
                  _APP_CustomHIDTasks$376 0099                            ?_USBDeviceInit 0001  
                           __CFG_PLLDIV$1 000000                                     ?_main 0001  
       __size_of_USBCtrlEPServiceComplete 00FE                    __end_of_USBDeviceTasks 0FAA  
               ?_USBCtrlEPServiceComplete 0001            __size_of_APP_USBCB_SOF_Handler 0002  
                                   i2l420 1D48                                     i2l501 1A70  
                                   i2l414 1B36                                     i2l166 1EEC  
                                   i2l342 1148                                     i2l504 2074  
                                   i2l611 1446                                     i2l428 14C6  
                                   i2l364 0F2A                                     i2l453 17FC  
                                   i2l541 1C98                                     i2l525 19AA  
                                   i2l365 0FA6                                     i2l438 1544  
                                   i2l366 0F3A                                     i2l535 2032  
                                   i2l384 1BF6                                     i2l473 1718  
                                   i2l553 1634                                     i2l466 1338  
                                   i2l570 0912                                     i2l491 19BA  
                                   i2l555 155A                                     i2l564 15B6  
                                   i2l549 1CAA                                     i2l494 1A52  
                                   i2l487 10E8                                     i2l495 19D2  
                                   i2l496 19D8                                     i2l593 0B7C  
                                   i2l589 0AE4             __end_of_APP_USBCB_SOF_Handler 228A  
                                   _UADDR 000F6E                             __CFG_USBDIV$2 000000  
                                   _TRISB 000F93                                     _USTAT 000F6C  
                           __CFG_PWRT$OFF 000000                             __CFG_WRT0$OFF 000000  
      __size_of_USBCtrlEPAllowStatusStage 00C6                             __CFG_WRT1$OFF 000000  
                          __CFG_EBTR0$OFF 000000                            __CFG_FCMEN$OFF 000000  
                          __CFG_EBTR1$OFF 000000           __end_of_USBCtrlEPAllowDataStage 1D4A  
                                   _sd000 08E1                                     _sd001 0851  
                                   _sd002 0809                             __CFG_WRTB$OFF 000000  
                           __CFG_WRTC$OFF 000000                           __end_of_initADC 2276  
                          __CFG_EBTRB$OFF 000000                                i2memset@p1 0012  
                              _ConvertADC 2284                                     tablat 000FF5  
                __end_of_SYS_InterruptLow 00A2                                     plusw2 000FDB  
                                   status 000FD8                  _APP_USBCBWakeFromSuspend 228A  
                        __end_ofi2_memset 21EC                   _APP_CustomHIDInitialize 2124  
            __size_of_USBStdSetCfgHandler 00E4                           __initialization 2240  
                            __end_of_main 2218                 __size_of_USBCtrlEPService 00D0  
                                  ??_main 009B                             __activetblptr 000002  
                         ?_USBDeviceTasks 0001                               ?_USBSuspend 0001  
                 __end_of_USBDeviceAttach 20EE                                    _ADCON0 000FC2  
                                  _ADCON1 000FC1                                    _ADCON2 000FC0  
                                  _ADRESH 000FC4                                    _ADRESL 000FC3  
                  SYSTEM_Initialize@state 0093                                    i2l3022 1258  
                                  i2l3040 12DC                                    i2l3018 1248  
                                  i2l3044 12EC                                    i2l3028 127E  
                                  i2l3038 12CE                                    i2l3062 1566  
                                  i2l3160 1C32                                    i2l3144 202C  
                                  i2l3136 1FE4                                    i2l2600 1364  
                                  i2l3072 1582                                    i2l3064 156C  
                                  i2l3240 21B4                                    i2l3320 1128  
                                  i2l3170 1C66                                    i2l3082 15AE  
                                  i2l3074 1588                                    i2l3066 1572  
                                  i2l3242 21B8                                    i2l3172 1C74  
                                  i2l3076 1590                                    i2l3068 157C  
                                  i2l3092 15F0                                    i2l3332 1154  
                                  i2l3340 116E                                    i2l3324 1142  
                                  i2l3158 1C2A                                    i2l2534 1DAC  
                                  i2l2622 13CC                                    i2l2606 1380  
                                  i2l3078 1596                                    i2l2704 17AE  
                                  i2l3184 1CA4                                    i2l2536 1DC6  
                                  i2l2544 208A                                    i2l2632 13F2  
                                  i2l2608 1388                                    i2l2616 13A2  
                                  i2l3088 15D2                                    i2l3280 192C  
                                  i2l3264 2072                                    i2l3344 118A  
                                  i2l2706 17BA                                    i2l2714 17F2  
                                  i2l3178 1C88                                    i2l2618 13B6  
                                  i2l2650 1E78                                    i2l2722 21DA  
                                  i2l3354 11EE                                    i2l3610 0F76  
                                  i2l2548 209A                                    i2l2564 1B7A  
                                  i2l2556 1B4E                                    i2l2628 13E6  
                                  i2l2644 141C                                    i2l2652 1E7E  
                                  i2l3292 197A                                    i2l3284 1934  
                                  i2l3348 1192                                    i2l2558 1B68  
                                  i2l2638 1410                                    i2l2654 1E84  
                                  i2l2662 1E96                                    i2l2910 09D4  
                                  i2l2902 098A                                    i2l2822 0FBC  
                                  i2l2718 21C8                                    i2l2814 16F4  
                                  i2l3614 0F82                                    i2l3550 0EA2  
                                  i2l2576 1BD6                                    i2l2592 134A  
                                  i2l2656 1E8A                                    i2l2648 1E72  
                                  i2l2904 09C8                                    i2l3296 1994  
                                  i2l3616 0FA2                                    i2l3608 0F60  
                                  i2l3536 0E88                                    i2l3528 0E7A  
                                  i2l2682 173C                                    i2l2738 1ABA  
                                  i2l2578 1BEC                                    i2l3810 1EE2  
                                  i2l2658 1E90                                    i2l2930 0A7C  
                                  i2l2914 09F0                                    i2l2842 10BE  
                                  i2l2834 1064                                    i2l2826 0FD4  
                                  i2l3298 199A                                    i2l3570 0EE2  
                                  i2l2596 1356                                    i2l2940 0AC2  
                                  i2l2924 0A44                                    i2l2916 0A12  
                                  i2l2908 09D0                                    i2l2844 10C6  
                                  i2l2836 106C                                    i2l2860 19F8  
                                  i2l2772 1D14                                    i2l3580 0EFA  
                                  i2l3564 0ED6                                    i2l2686 1748  
                                  i2l2950 0B00                                    i2l2942 0AD0  
                                  i2l2926 0A62                                    i2l2862 1A1A  
                                  i2l2854 19C6                                    i2l2870 1A3A  
                                  i2l3574 0EEE                                    i2l3558 0EB0  
                                  i2l2696 1776                                    i2l3808 1EAE  
                                  i2l2952 0B1E                                    i2l2848 10CE  
                                  i2l2792 1680                                    i2l2768 1CF6  
                                  i2l2970 1466                                    i2l3594 0F32  
                                  i2l2956 0B48                                    i2l2788 1678  
                                  i2l3588 0F20                                    i2l2958 0B56  
                                  i2l2798 16AC                                    i2l2974 1470  
                                  i2l2888 090C                                    i2l2986 14DC  
                                  i2l2994 14F0                                 ??_BusyADC 008E  
                i2USBTransferOnePacket@ep 0016                         ??i2_USBDeviceInit 001A  
         __size_ofi2_USBTransferOnePacket 00C0                            __CFG_VREGEN$ON 000000  
                               ??_OpenADC 0090                         _shortPacketStatus 0045  
                          __CFG_XINST$OFF 000000                           USBDeviceTasks@i 002F  
             __size_of_APP_CustomHIDTasks 018A               USBStdFeatureReqHandler@pUEP 0027  
                USBTransferOnePacket@data 008F                USBCtrlTrfInHandler@lastDTS 0013  
                         ??_USBDeviceInit 0096                            __CFG_STVREN$ON 000000  
                       _USBEnableEndpoint 2078           __size_of_USBStdGetStatusHandler 00C6  
                                  _memset 20EE                                    clear_0 2246  
                                  clear_1 2252                        ?_USBEnableEndpoint 001A  
                               ??_initADC 0093             __size_of_USBTransferOnePacket 00DE  
                            __mediumconst 0000                                    tblptrh 000FF7  
                                  tblptrl 000FF6                                    tblptru 000FF8  
                     ??_USBEnableEndpoint 001B                               _CtrlTrfData 000428  
                             ?_ConvertADC 0001            __size_of_APP_USBCBErrorHandler 0002  
           __end_of_APP_USBCBErrorHandler 2290                      _controlTransferState 0043  
                       _SYSTEM_Initialize 215A                 ??_APP_CustomHIDInitialize 001E  
                              __accesstop 0060                   __end_of__initialization 2258  
                         __CFG_PBADEN$OFF 000000                        ?_SYSTEM_Initialize 0001  
                           ___rparam_used 000001                  __size_of_USBStallHandler 0044  
                     __size_of_USBSuspend 0028                            __pcstackCOMRAM 0001  
               __end_of_USBEnableEndpoint 20B8                             __end_of_sd000 08E5  
                           __end_of_sd001 0889                             __end_of_sd002 0851  
                     ??_SYSTEM_Initialize 0093          __size_of_USBCtrlEPAllowDataStage 009E  
                         _active_protocol 0049             __size_of_USBConfigureEndpoint 0096  
             __end_of_USBCtrlTrfInHandler 1CAC                    i2_USBTransferOnePacket 1B38  
                               ?i2_memset 0012                  ??_USBCtrlTrfSetupHandler 002C  
                        ?_USBDeviceAttach 0001                 __end_of_SYSTEM_Initialize 218E  
                  _USBStdGetStatusHandler 19AC                                __pbssBANK0 0060  
             __size_of_USBWakeFromSuspend 0030                               _pBDTEntryIn 0068  
        __end_of_USBCtrlEPServiceComplete 1546                      USBCtrlTrfRxService@i 0012  
               __size_of_APP_USBCBSuspend 0002                                   ?_memset 008E  
                              _device_dsc 08CF                       __size_of_ConvertADC 0004  
                        _USBCtrlEPService 18DC                                _ep_data_in 0074  
             __end_of_USBCtrlTrfRxService 133A                        _USBCheckStdRequest 1546  
                       _configDescriptor1 0889                                ??i2_memset 0018  
             __end_of_USBCtrlTrfTxService 17FE                       _USBStdSetCfgHandler 1636  
              ??_APP_USBCBWakeFromSuspend 0012                       ?_USBCheckStdRequest 0001  
            __size_of_USBStdGetDscHandler 0140                                   _UIEbits 000F69  
                                 _UIRbits 000F68                         ?_SYS_InterruptLow 0001  
                                 _BusyADC 2276            APP_LEDUpdateUSBStatus@ledCount 0030  
                      ??_SYS_InterruptLow 0001                                   _OpenADC 1EEE  
                                 __Hparam 0000                      ?_USBStdSetCfgHandler 0001  
             __size_of_USBCheckHIDRequest 010E                                   __Lparam 0000  
                       __end_of_hid_rpt01 08CF                __size_of_USBEnableEndpoint 0040  
                    ??_USBCheckStdRequest 002C             __size_of_USBCtrlTrfOutHandler 005E  
                        _ToSendDataBuffer 000540                          ??_USBDeviceTasks 002F  
                       ??_USBStallHandler 0012                              __psmallconst 0800  
                                 __pcinit 2240                           __size_of_memset 0036  
               __end_of_configDescriptor1 08B2                                   __ramtop 0800  
                                 __ptext0 21EC                                   __ptext1 0D08  
                                 __ptext2 20B8                                   __ptext3 215A  
                                 __ptext4 2262                                   __ptext5 1EEE  
                                 __ptext6 0B7E                                   __ptext7 20EE  
                                 __ptext8 17FE                                   __ptext9 2284  
                                 _inPipes 007A               _USBDeferOUTDataStagePackets 003E  
                                 _initADC 2262                              ??_USBSuspend 0026  
                         i2_USBDeviceInit 10EA                     _APP_USBCB_SOF_Handler 2288  
                        i2USBDeviceInit@i 001A                        __end_of_USB_CD_Ptr 0809  
                          OpenADC@config2 008E                __size_of_SYSTEM_Initialize 0034  
         __size_of_USBCtrlTrfSetupHandler 008E                            __pintcode_body 1F6A  
                    end_of_initialization 2258                        __end_of_USB_SD_Ptr 0807  
                     _pBDTEntryEP0OutNext 0036                                   memset@c 0090  
                                 memset@n 0092                                   memset@p 0094  
                           __Lmediumconst 0000                                   int_func 1F6A  
                ?_USBStdFeatureReqHandler 0001                     ??_USBStdSetCfgHandler 0026  
                      __end_of_USBSuspend 2240                   _USBCtrlEPAllowDataStage 1CAC  
                                 postdec2 000FDD                                   postinc0 000FEE  
                                 postinc2 000FDE                  _USBCtrlEPServiceComplete 1448  
              _USBStatusStageEnabledFlag1 0040                _USBStatusStageEnabledFlag2 0041  
                      USBEnableEndpoint@p 001B                                 _PORTBbits 000F81  
                               _TRISAbits 000F92                                 _TRISBbits 000F93  
                      _ReceivedDataBuffer 000500                        _BothEP0OutUOWNsSet 003A  
               USBConfigureEndpoint@EPNum 0017                              ??_ConvertADC 008E  
              ?_USBCtrlEPAllowStatusStage 0001       USER_USB_CALLBACK_EVENT_HANDLER@size 0022  
                               _USTATcopy 0048              __end_of_USBTransferOnePacket 18DC  
              __end_of_APP_CustomHIDTasks 0D08                          _APP_USBCBSuspend 228C  
                  _USBCtrlTrfSetupHandler 1DE0                   ?i2_USBTransferOnePacket 0012  
                   __end_of_USBDeviceInit 0E60                               __doTransmit 0079  
                 __end_ofi2_USBDeviceInit 1224                        __end_of_ConvertADC 2288  
                               i2memset@c 0014                                 i2memset@n 0016  
                               i2memset@p 0018                            __end_of_memset 2124  
                       _USBBusIsSuspended 003C                    ?_APP_USBCB_SOF_Handler 0001  
                     start_initialization 2240                   ?_USBStdGetStatusHandler 0001  
           USBCtrlTrfRxService@byteToRead 0013                         __size_ofi2_memset 002E  
            __end_of_USBConfigureEndpoint 1DE0           __end_of_USBStdFeatureReqHandler 0B7E  
       __end_of_USBCtrlEPAllowStatusStage 1B38                  __end_of_USBCtrlEPService 19AC  
                   _APP_USBCBErrorHandler 228E                 ??_USBCtrlEPAllowDataStage 0013  
                          USBDeviceInit@i 0096                    _pBDTEntryEP0OutCurrent 0034  
                 USBTransferOnePacket@dir 008E                   USBTransferOnePacket@len 0091  
          __end_ofi2_USBTransferOnePacket 1BF8                       _USBStdGetDscHandler 0FAA  
                        __CFG_LPT1OSC$OFF 000000                                  ??_memset 0094  
                  _USBActiveConfiguration 0046            __end_of_USBStdGetStatusHandler 1A72  
                             __pbssCOMRAM 0030                             __pcstackBANK0 0080  
            __size_of_USBCtrlTrfInHandler 00B4                  ?_APP_CustomHIDInitialize 0001  
                    ?_USBStdGetDscHandler 0001                __end_of_USBWakeFromSuspend 21BE  
                         _USBStallHandler 2034                              _pBDTEntryOut 006C  
                                ?_BusyADC 0001                  __size_of_USBDeviceAttach 0036  
                       OpenADC@portconfig 008F                                  ?_OpenADC 008E  
                               __pintcode 0008                                 _hid_rpt01 08B2  
                             __pintcodelo 0018                 __size_of_SYS_InterruptLow 008A  
                               _idle_rate 004A                          ?i2_USBDeviceInit 0001  
              USBCBSendResume@delay_count 0032                                  ?_initADC 0001  
                    _USBTransferOnePacket 17FE                               __smallconst 0800  
            __end_of_USBCtrlTrfOutHandler 2034                     ??_USBStdGetDscHandler 0012  
                             _ep_data_out 0076              __size_of_USBCtrlTrfRxService 0116  
           USBConfigureEndpoint@direction 0012                    ?_APP_USBCBErrorHandler 0001  
            __size_of_USBCtrlTrfTxService 00E4                             OpenADC@config 0092  
                                _LATBbits 000F8A                __end_of_USBCheckHIDRequest 1448  
              ??_USBCtrlEPServiceComplete 0013                                  _IPR2bits 000FA2  
                                _PIE1bits 000F9D                                  _PIE2bits 000FA0  
       __size_of_APP_USBCBWakeFromSuspend 0002                                  i2u172_40 179E  
                                i2u172_47 1794                                  i2u174_40 17E2  
                                i2u174_47 17D8                                  i2u191_40 10B2  
                                i2u191_47 10A8                                  _PIR1bits 000F9E  
                                _PIR2bits 000FA1                                  i2u188_40 102A  
                                i2u188_47 1020                                  i2u189_40 105E  
               ?_APP_USBCBWakeFromSuspend 0001                                  i2u189_47 1054  
               USBCtrlEPService@setup_cnt 002E                                  _RCONbits 000FD0  
                        __CFG_WDTPS$32768 000000                                  _UEP0bits 000F70  
              _USBDeferINDataStagePackets 003D               __size_of_USBCheckStdRequest 00F0  
                                _UCONbits 000F6D                      _USBConfigureEndpoint 1D4A  
        __size_of_USBStdFeatureReqHandler 0298                                _ADCON0bits 000FC2  
                   ?_USBTransferOnePacket 008E           __end_of_APP_CustomHIDInitialize 215A  
                       _SYS_InterruptHigh 0008                              _RemoteWakeup 003B  
                                i2_memset 21BE                        ?_SYS_InterruptHigh 0001  
                __end_of_APP_USBCBSuspend 228E                   __end_of_USBStallHandler 2078  
             ??_USBCtrlEPAllowStatusStage 0012               __end_of_USBStdSetCfgHandler 171A  
                     ??_SYS_InterruptHigh 0080                        __end_of_device_dsc 08E1  
                        __size_of_BusyADC 000E                   ?_USBCtrlTrfSetupHandler 0001  
                 USBStdGetStatusHandler@p 0013                                  __Hrparam 0000  
                        __size_of_OpenADC 007C                                  __Lrparam 0000  
                  USBTransferOnePacket@ep 0092                                  _SetupPkt 000420  
                   ?_USBConfigureEndpoint 0012                         ??_USBDeviceAttach 008E  
                 ??_APP_USBCB_SOF_Handler 0012                 __end_of_SYS_InterruptHigh 1FD6  
                      _APP_CustomHIDTasks 0B7E                          __size_of_initADC 0014  
                 __size_of_USBDeviceTasks 014A                       ?_APP_CustomHIDTasks 0001  
                                __ptext10 2276                                  __ptext20 1448  
                                __ptext21 1CAC                                  __ptext13 0E60  
                                __ptext30 2288                                  __ptext22 1546  
                                __ptext14 10EA                                  __ptext31 228A  
                                __ptext23 1636                                  __ptext15 218E  
                                __ptext40 1A72                                  __ptext32 228C  
                                __ptext24 21BE                                  __ptext16 2218  
                                __ptext41 1BF8                                  __ptext33 228E  
                                __ptext25 19AC                                  __ptext17 2034  
                                __ptext42 171A                                  __ptext34 2124  
                                __ptext26 0FAA                                  __ptext18 18DC  
                                __ptext35 1B38                                  __ptext27 08E6  
                                __ptext19 1DE0                                  __ptext36 2078  
                                __ptext28 1E6E                                  __ptext37 1D4A  
                                __ptext29 133A                                  __ptext38 1FD6  
                                __ptext39 1224            __end_of_USBCtrlTrfSetupHandler 1E6E  
                           __size_of_main 002C                         ?_USBCtrlEPService 0001  
                      ??_USBCtrlEPService 002C                       _USBCtrlTrfInHandler 1BF8  
                    ??_APP_CustomHIDTasks 0096                                  _outPipes 0060  
                    _USBCtrlTrfOutHandler 1FD6                 _USBCtrlEPAllowStatusStage 1A72  
                        _SYS_InterruptLow 0018                    ??_USBTransferOnePacket 0092  
                   __CFG_CPUDIV$OSC1_PLL2 000000                 _USBDeferStatusStagePacket 003F  
                              _INTCONbits 000FF2                      ?_USBCtrlTrfInHandler 0001  
           USBCtrlTrfTxService@byteToSend 0012                                  memset@p1 008E  
                        ?_USBStallHandler 0001                  USBStdFeatureReqHandler@p 002A  
                                intlevel1 0000                                  intlevel2 0000  
                  __size_of_USBDeviceInit 0158   __end_of_USER_USB_CALLBACK_EVENT_HANDLER 1EEE  
__size_of_USER_USB_CALLBACK_EVENT_HANDLER 0080         ??_USER_USB_CALLBACK_EVENT_HANDLER 0024  
        ?_USER_USB_CALLBACK_EVENT_HANDLER 001E           _USER_USB_CALLBACK_EVENT_HANDLER 1E6E  
            i2USBTransferOnePacket@handle 0017          __size_of_APP_CustomHIDInitialize 0036  
              i2USBTransferOnePacket@data 0013                    ??_USBConfigureEndpoint 0013  
                   ?_USBCtrlTrfOutHandler 0001                       _USBCtrlTrfRxService 1224  
                      _USBWakeFromSuspend 218E                   _USBStdFeatureReqHandler 08E6  
                     _USBCtrlTrfTxService 171A                __size_of_SYS_InterruptHigh 1FCE  
                     ?_USBWakeFromSuspend 0001                     ??_USBCtrlTrfInHandler 0013  
                   _USBAlternateInterface 0047                 i2USBTransferOnePacket@dir 0012  
               i2USBTransferOnePacket@len 0015                       USBEnableEndpoint@ep 001D  
                         _endpoint_number 0044                   ??_APP_USBCBErrorHandler 0012  
        __end_of_APP_USBCBWakeFromSuspend 228C                      ?_USBCtrlTrfRxService 0001  
                ?_USBCtrlEPAllowDataStage 0001                      ?_USBCtrlTrfTxService 0001  
            _USBStatusStageTimeoutCounter 0042                      ??_USBWakeFromSuspend 0026  
              USBTransferOnePacket@handle 0093                                _USB_CD_Ptr 0807  
                             _USBInHandle 0070  
